
ctarget:     file format elf64-x86-64


Disassembly of section .init:

0000000000400c48 <_init>:
  400c48:	48 83 ec 08          	sub    $0x8,%rsp
  400c4c:	48 8b 05 a5 43 20 00 	mov    0x2043a5(%rip),%rax        # 604ff8 <_DYNAMIC+0x1d0>
  400c53:	48 85 c0             	test   %rax,%rax
  400c56:	74 05                	je     400c5d <_init+0x15>
  400c58:	e8 43 02 00 00       	callq  400ea0 <socket@plt+0x10>
  400c5d:	48 83 c4 08          	add    $0x8,%rsp
  400c61:	c3                   	retq   

Disassembly of section .plt:

0000000000400c70 <strcasecmp@plt-0x10>:
  400c70:	ff 35 92 43 20 00    	pushq  0x204392(%rip)        # 605008 <_GLOBAL_OFFSET_TABLE_+0x8>
  400c76:	ff 25 94 43 20 00    	jmpq   *0x204394(%rip)        # 605010 <_GLOBAL_OFFSET_TABLE_+0x10>
  400c7c:	0f 1f 40 00          	nopl   0x0(%rax)

0000000000400c80 <strcasecmp@plt>:
  400c80:	ff 25 92 43 20 00    	jmpq   *0x204392(%rip)        # 605018 <_GLOBAL_OFFSET_TABLE_+0x18>
  400c86:	68 00 00 00 00       	pushq  $0x0
  400c8b:	e9 e0 ff ff ff       	jmpq   400c70 <_init+0x28>

0000000000400c90 <__errno_location@plt>:
  400c90:	ff 25 8a 43 20 00    	jmpq   *0x20438a(%rip)        # 605020 <_GLOBAL_OFFSET_TABLE_+0x20>
  400c96:	68 01 00 00 00       	pushq  $0x1
  400c9b:	e9 d0 ff ff ff       	jmpq   400c70 <_init+0x28>

0000000000400ca0 <srandom@plt>:
  400ca0:	ff 25 82 43 20 00    	jmpq   *0x204382(%rip)        # 605028 <_GLOBAL_OFFSET_TABLE_+0x28>
  400ca6:	68 02 00 00 00       	pushq  $0x2
  400cab:	e9 c0 ff ff ff       	jmpq   400c70 <_init+0x28>

0000000000400cb0 <strncmp@plt>:
  400cb0:	ff 25 7a 43 20 00    	jmpq   *0x20437a(%rip)        # 605030 <_GLOBAL_OFFSET_TABLE_+0x30>
  400cb6:	68 03 00 00 00       	pushq  $0x3
  400cbb:	e9 b0 ff ff ff       	jmpq   400c70 <_init+0x28>

0000000000400cc0 <strcpy@plt>:
  400cc0:	ff 25 72 43 20 00    	jmpq   *0x204372(%rip)        # 605038 <_GLOBAL_OFFSET_TABLE_+0x38>
  400cc6:	68 04 00 00 00       	pushq  $0x4
  400ccb:	e9 a0 ff ff ff       	jmpq   400c70 <_init+0x28>

0000000000400cd0 <puts@plt>:
  400cd0:	ff 25 6a 43 20 00    	jmpq   *0x20436a(%rip)        # 605040 <_GLOBAL_OFFSET_TABLE_+0x40>
  400cd6:	68 05 00 00 00       	pushq  $0x5
  400cdb:	e9 90 ff ff ff       	jmpq   400c70 <_init+0x28>

0000000000400ce0 <write@plt>:
  400ce0:	ff 25 62 43 20 00    	jmpq   *0x204362(%rip)        # 605048 <_GLOBAL_OFFSET_TABLE_+0x48>
  400ce6:	68 06 00 00 00       	pushq  $0x6
  400ceb:	e9 80 ff ff ff       	jmpq   400c70 <_init+0x28>

0000000000400cf0 <__stack_chk_fail@plt>:
  400cf0:	ff 25 5a 43 20 00    	jmpq   *0x20435a(%rip)        # 605050 <_GLOBAL_OFFSET_TABLE_+0x50>
  400cf6:	68 07 00 00 00       	pushq  $0x7
  400cfb:	e9 70 ff ff ff       	jmpq   400c70 <_init+0x28>

0000000000400d00 <mmap@plt>:
  400d00:	ff 25 52 43 20 00    	jmpq   *0x204352(%rip)        # 605058 <_GLOBAL_OFFSET_TABLE_+0x58>
  400d06:	68 08 00 00 00       	pushq  $0x8
  400d0b:	e9 60 ff ff ff       	jmpq   400c70 <_init+0x28>

0000000000400d10 <memset@plt>:
  400d10:	ff 25 4a 43 20 00    	jmpq   *0x20434a(%rip)        # 605060 <_GLOBAL_OFFSET_TABLE_+0x60>
  400d16:	68 09 00 00 00       	pushq  $0x9
  400d1b:	e9 50 ff ff ff       	jmpq   400c70 <_init+0x28>

0000000000400d20 <alarm@plt>:
  400d20:	ff 25 42 43 20 00    	jmpq   *0x204342(%rip)        # 605068 <_GLOBAL_OFFSET_TABLE_+0x68>
  400d26:	68 0a 00 00 00       	pushq  $0xa
  400d2b:	e9 40 ff ff ff       	jmpq   400c70 <_init+0x28>

0000000000400d30 <close@plt>:
  400d30:	ff 25 3a 43 20 00    	jmpq   *0x20433a(%rip)        # 605070 <_GLOBAL_OFFSET_TABLE_+0x70>
  400d36:	68 0b 00 00 00       	pushq  $0xb
  400d3b:	e9 30 ff ff ff       	jmpq   400c70 <_init+0x28>

0000000000400d40 <read@plt>:
  400d40:	ff 25 32 43 20 00    	jmpq   *0x204332(%rip)        # 605078 <_GLOBAL_OFFSET_TABLE_+0x78>
  400d46:	68 0c 00 00 00       	pushq  $0xc
  400d4b:	e9 20 ff ff ff       	jmpq   400c70 <_init+0x28>

0000000000400d50 <__libc_start_main@plt>:
  400d50:	ff 25 2a 43 20 00    	jmpq   *0x20432a(%rip)        # 605080 <_GLOBAL_OFFSET_TABLE_+0x80>
  400d56:	68 0d 00 00 00       	pushq  $0xd
  400d5b:	e9 10 ff ff ff       	jmpq   400c70 <_init+0x28>

0000000000400d60 <signal@plt>:
  400d60:	ff 25 22 43 20 00    	jmpq   *0x204322(%rip)        # 605088 <_GLOBAL_OFFSET_TABLE_+0x88>
  400d66:	68 0e 00 00 00       	pushq  $0xe
  400d6b:	e9 00 ff ff ff       	jmpq   400c70 <_init+0x28>

0000000000400d70 <gethostbyname@plt>:
  400d70:	ff 25 1a 43 20 00    	jmpq   *0x20431a(%rip)        # 605090 <_GLOBAL_OFFSET_TABLE_+0x90>
  400d76:	68 0f 00 00 00       	pushq  $0xf
  400d7b:	e9 f0 fe ff ff       	jmpq   400c70 <_init+0x28>

0000000000400d80 <__memmove_chk@plt>:
  400d80:	ff 25 12 43 20 00    	jmpq   *0x204312(%rip)        # 605098 <_GLOBAL_OFFSET_TABLE_+0x98>
  400d86:	68 10 00 00 00       	pushq  $0x10
  400d8b:	e9 e0 fe ff ff       	jmpq   400c70 <_init+0x28>

0000000000400d90 <strtol@plt>:
  400d90:	ff 25 0a 43 20 00    	jmpq   *0x20430a(%rip)        # 6050a0 <_GLOBAL_OFFSET_TABLE_+0xa0>
  400d96:	68 11 00 00 00       	pushq  $0x11
  400d9b:	e9 d0 fe ff ff       	jmpq   400c70 <_init+0x28>

0000000000400da0 <memcpy@plt>:
  400da0:	ff 25 02 43 20 00    	jmpq   *0x204302(%rip)        # 6050a8 <_GLOBAL_OFFSET_TABLE_+0xa8>
  400da6:	68 12 00 00 00       	pushq  $0x12
  400dab:	e9 c0 fe ff ff       	jmpq   400c70 <_init+0x28>

0000000000400db0 <time@plt>:
  400db0:	ff 25 fa 42 20 00    	jmpq   *0x2042fa(%rip)        # 6050b0 <_GLOBAL_OFFSET_TABLE_+0xb0>
  400db6:	68 13 00 00 00       	pushq  $0x13
  400dbb:	e9 b0 fe ff ff       	jmpq   400c70 <_init+0x28>

0000000000400dc0 <random@plt>:
  400dc0:	ff 25 f2 42 20 00    	jmpq   *0x2042f2(%rip)        # 6050b8 <_GLOBAL_OFFSET_TABLE_+0xb8>
  400dc6:	68 14 00 00 00       	pushq  $0x14
  400dcb:	e9 a0 fe ff ff       	jmpq   400c70 <_init+0x28>

0000000000400dd0 <_IO_getc@plt>:
  400dd0:	ff 25 ea 42 20 00    	jmpq   *0x2042ea(%rip)        # 6050c0 <_GLOBAL_OFFSET_TABLE_+0xc0>
  400dd6:	68 15 00 00 00       	pushq  $0x15
  400ddb:	e9 90 fe ff ff       	jmpq   400c70 <_init+0x28>

0000000000400de0 <__isoc99_sscanf@plt>:
  400de0:	ff 25 e2 42 20 00    	jmpq   *0x2042e2(%rip)        # 6050c8 <_GLOBAL_OFFSET_TABLE_+0xc8>
  400de6:	68 16 00 00 00       	pushq  $0x16
  400deb:	e9 80 fe ff ff       	jmpq   400c70 <_init+0x28>

0000000000400df0 <munmap@plt>:
  400df0:	ff 25 da 42 20 00    	jmpq   *0x2042da(%rip)        # 6050d0 <_GLOBAL_OFFSET_TABLE_+0xd0>
  400df6:	68 17 00 00 00       	pushq  $0x17
  400dfb:	e9 70 fe ff ff       	jmpq   400c70 <_init+0x28>

0000000000400e00 <__printf_chk@plt>:
  400e00:	ff 25 d2 42 20 00    	jmpq   *0x2042d2(%rip)        # 6050d8 <_GLOBAL_OFFSET_TABLE_+0xd8>
  400e06:	68 18 00 00 00       	pushq  $0x18
  400e0b:	e9 60 fe ff ff       	jmpq   400c70 <_init+0x28>

0000000000400e10 <fopen@plt>:
  400e10:	ff 25 ca 42 20 00    	jmpq   *0x2042ca(%rip)        # 6050e0 <_GLOBAL_OFFSET_TABLE_+0xe0>
  400e16:	68 19 00 00 00       	pushq  $0x19
  400e1b:	e9 50 fe ff ff       	jmpq   400c70 <_init+0x28>

0000000000400e20 <getopt@plt>:
  400e20:	ff 25 c2 42 20 00    	jmpq   *0x2042c2(%rip)        # 6050e8 <_GLOBAL_OFFSET_TABLE_+0xe8>
  400e26:	68 1a 00 00 00       	pushq  $0x1a
  400e2b:	e9 40 fe ff ff       	jmpq   400c70 <_init+0x28>

0000000000400e30 <strtoul@plt>:
  400e30:	ff 25 ba 42 20 00    	jmpq   *0x2042ba(%rip)        # 6050f0 <_GLOBAL_OFFSET_TABLE_+0xf0>
  400e36:	68 1b 00 00 00       	pushq  $0x1b
  400e3b:	e9 30 fe ff ff       	jmpq   400c70 <_init+0x28>

0000000000400e40 <gethostname@plt>:
  400e40:	ff 25 b2 42 20 00    	jmpq   *0x2042b2(%rip)        # 6050f8 <_GLOBAL_OFFSET_TABLE_+0xf8>
  400e46:	68 1c 00 00 00       	pushq  $0x1c
  400e4b:	e9 20 fe ff ff       	jmpq   400c70 <_init+0x28>

0000000000400e50 <exit@plt>:
  400e50:	ff 25 aa 42 20 00    	jmpq   *0x2042aa(%rip)        # 605100 <_GLOBAL_OFFSET_TABLE_+0x100>
  400e56:	68 1d 00 00 00       	pushq  $0x1d
  400e5b:	e9 10 fe ff ff       	jmpq   400c70 <_init+0x28>

0000000000400e60 <connect@plt>:
  400e60:	ff 25 a2 42 20 00    	jmpq   *0x2042a2(%rip)        # 605108 <_GLOBAL_OFFSET_TABLE_+0x108>
  400e66:	68 1e 00 00 00       	pushq  $0x1e
  400e6b:	e9 00 fe ff ff       	jmpq   400c70 <_init+0x28>

0000000000400e70 <__fprintf_chk@plt>:
  400e70:	ff 25 9a 42 20 00    	jmpq   *0x20429a(%rip)        # 605110 <_GLOBAL_OFFSET_TABLE_+0x110>
  400e76:	68 1f 00 00 00       	pushq  $0x1f
  400e7b:	e9 f0 fd ff ff       	jmpq   400c70 <_init+0x28>

0000000000400e80 <__sprintf_chk@plt>:
  400e80:	ff 25 92 42 20 00    	jmpq   *0x204292(%rip)        # 605118 <_GLOBAL_OFFSET_TABLE_+0x118>
  400e86:	68 20 00 00 00       	pushq  $0x20
  400e8b:	e9 e0 fd ff ff       	jmpq   400c70 <_init+0x28>

0000000000400e90 <socket@plt>:
  400e90:	ff 25 8a 42 20 00    	jmpq   *0x20428a(%rip)        # 605120 <_GLOBAL_OFFSET_TABLE_+0x120>
  400e96:	68 21 00 00 00       	pushq  $0x21
  400e9b:	e9 d0 fd ff ff       	jmpq   400c70 <_init+0x28>

Disassembly of section .plt.got:

0000000000400ea0 <.plt.got>:
  400ea0:	ff 25 52 41 20 00    	jmpq   *0x204152(%rip)        # 604ff8 <_DYNAMIC+0x1d0>
  400ea6:	66 90                	xchg   %ax,%ax

Disassembly of section .text:

0000000000400eb0 <_start>:
  400eb0:	31 ed                	xor    %ebp,%ebp
  400eb2:	49 89 d1             	mov    %rdx,%r9
  400eb5:	5e                   	pop    %rsi
  400eb6:	48 89 e2             	mov    %rsp,%rdx
  400eb9:	48 83 e4 f0          	and    $0xfffffffffffffff0,%rsp
  400ebd:	50                   	push   %rax
  400ebe:	54                   	push   %rsp
  400ebf:	49 c7 c0 d0 2d 40 00 	mov    $0x402dd0,%r8
  400ec6:	48 c7 c1 60 2d 40 00 	mov    $0x402d60,%rcx
  400ecd:	48 c7 c7 b5 11 40 00 	mov    $0x4011b5,%rdi
  400ed4:	e8 77 fe ff ff       	callq  400d50 <__libc_start_main@plt>
  400ed9:	f4                   	hlt    
  400eda:	66 0f 1f 44 00 00    	nopw   0x0(%rax,%rax,1)

0000000000400ee0 <deregister_tm_clones>:
  400ee0:	b8 97 59 60 00       	mov    $0x605997,%eax
  400ee5:	55                   	push   %rbp
  400ee6:	48 2d 90 59 60 00    	sub    $0x605990,%rax
  400eec:	48 83 f8 0e          	cmp    $0xe,%rax
  400ef0:	48 89 e5             	mov    %rsp,%rbp
  400ef3:	76 1b                	jbe    400f10 <deregister_tm_clones+0x30>
  400ef5:	b8 00 00 00 00       	mov    $0x0,%eax
  400efa:	48 85 c0             	test   %rax,%rax
  400efd:	74 11                	je     400f10 <deregister_tm_clones+0x30>
  400eff:	5d                   	pop    %rbp
  400f00:	bf 90 59 60 00       	mov    $0x605990,%edi
  400f05:	ff e0                	jmpq   *%rax
  400f07:	66 0f 1f 84 00 00 00 	nopw   0x0(%rax,%rax,1)
  400f0e:	00 00 
  400f10:	5d                   	pop    %rbp
  400f11:	c3                   	retq   
  400f12:	0f 1f 40 00          	nopl   0x0(%rax)
  400f16:	66 2e 0f 1f 84 00 00 	nopw   %cs:0x0(%rax,%rax,1)
  400f1d:	00 00 00 

0000000000400f20 <register_tm_clones>:
  400f20:	be 90 59 60 00       	mov    $0x605990,%esi
  400f25:	55                   	push   %rbp
  400f26:	48 81 ee 90 59 60 00 	sub    $0x605990,%rsi
  400f2d:	48 c1 fe 03          	sar    $0x3,%rsi
  400f31:	48 89 e5             	mov    %rsp,%rbp
  400f34:	48 89 f0             	mov    %rsi,%rax
  400f37:	48 c1 e8 3f          	shr    $0x3f,%rax
  400f3b:	48 01 c6             	add    %rax,%rsi
  400f3e:	48 d1 fe             	sar    %rsi
  400f41:	74 15                	je     400f58 <register_tm_clones+0x38>
  400f43:	b8 00 00 00 00       	mov    $0x0,%eax
  400f48:	48 85 c0             	test   %rax,%rax
  400f4b:	74 0b                	je     400f58 <register_tm_clones+0x38>
  400f4d:	5d                   	pop    %rbp
  400f4e:	bf 90 59 60 00       	mov    $0x605990,%edi
  400f53:	ff e0                	jmpq   *%rax
  400f55:	0f 1f 00             	nopl   (%rax)
  400f58:	5d                   	pop    %rbp
  400f59:	c3                   	retq   
  400f5a:	66 0f 1f 44 00 00    	nopw   0x0(%rax,%rax,1)

0000000000400f60 <__do_global_dtors_aux>:
  400f60:	80 3d 61 4a 20 00 00 	cmpb   $0x0,0x204a61(%rip)        # 6059c8 <completed.7594>
  400f67:	75 11                	jne    400f7a <__do_global_dtors_aux+0x1a>
  400f69:	55                   	push   %rbp
  400f6a:	48 89 e5             	mov    %rsp,%rbp
  400f6d:	e8 6e ff ff ff       	callq  400ee0 <deregister_tm_clones>
  400f72:	5d                   	pop    %rbp
  400f73:	c6 05 4e 4a 20 00 01 	movb   $0x1,0x204a4e(%rip)        # 6059c8 <completed.7594>
  400f7a:	f3 c3                	repz retq 
  400f7c:	0f 1f 40 00          	nopl   0x0(%rax)

0000000000400f80 <frame_dummy>:
  400f80:	bf 20 4e 60 00       	mov    $0x604e20,%edi
  400f85:	48 83 3f 00          	cmpq   $0x0,(%rdi)
  400f89:	75 05                	jne    400f90 <frame_dummy+0x10>
  400f8b:	eb 93                	jmp    400f20 <register_tm_clones>
  400f8d:	0f 1f 00             	nopl   (%rax)
  400f90:	b8 00 00 00 00       	mov    $0x0,%eax
  400f95:	48 85 c0             	test   %rax,%rax
  400f98:	74 f1                	je     400f8b <frame_dummy+0xb>
  400f9a:	55                   	push   %rbp
  400f9b:	48 89 e5             	mov    %rsp,%rbp
  400f9e:	ff d0                	callq  *%rax
  400fa0:	5d                   	pop    %rbp
  400fa1:	e9 7a ff ff ff       	jmpq   400f20 <register_tm_clones>

0000000000400fa6 <usage>:
  400fa6:	48 83 ec 08          	sub    $0x8,%rsp
  400faa:	48 89 fa             	mov    %rdi,%rdx
  400fad:	83 3d 54 4a 20 00 00 	cmpl   $0x0,0x204a54(%rip)        # 605a08 <is_checker>
  400fb4:	74 3e                	je     400ff4 <usage+0x4e>
  400fb6:	be e8 2d 40 00       	mov    $0x402de8,%esi
  400fbb:	bf 01 00 00 00       	mov    $0x1,%edi
  400fc0:	b8 00 00 00 00       	mov    $0x0,%eax
  400fc5:	e8 36 fe ff ff       	callq  400e00 <__printf_chk@plt>
  400fca:	bf 20 2e 40 00       	mov    $0x402e20,%edi
  400fcf:	e8 fc fc ff ff       	callq  400cd0 <puts@plt>
  400fd4:	bf 98 2f 40 00       	mov    $0x402f98,%edi
  400fd9:	e8 f2 fc ff ff       	callq  400cd0 <puts@plt>
  400fde:	bf 48 2e 40 00       	mov    $0x402e48,%edi
  400fe3:	e8 e8 fc ff ff       	callq  400cd0 <puts@plt>
  400fe8:	bf b2 2f 40 00       	mov    $0x402fb2,%edi
  400fed:	e8 de fc ff ff       	callq  400cd0 <puts@plt>
  400ff2:	eb 32                	jmp    401026 <usage+0x80>
  400ff4:	be ce 2f 40 00       	mov    $0x402fce,%esi
  400ff9:	bf 01 00 00 00       	mov    $0x1,%edi
  400ffe:	b8 00 00 00 00       	mov    $0x0,%eax
  401003:	e8 f8 fd ff ff       	callq  400e00 <__printf_chk@plt>
  401008:	bf 70 2e 40 00       	mov    $0x402e70,%edi
  40100d:	e8 be fc ff ff       	callq  400cd0 <puts@plt>
  401012:	bf 98 2e 40 00       	mov    $0x402e98,%edi
  401017:	e8 b4 fc ff ff       	callq  400cd0 <puts@plt>
  40101c:	bf ec 2f 40 00       	mov    $0x402fec,%edi
  401021:	e8 aa fc ff ff       	callq  400cd0 <puts@plt>
  401026:	bf 00 00 00 00       	mov    $0x0,%edi
  40102b:	e8 20 fe ff ff       	callq  400e50 <exit@plt>

0000000000401030 <initialize_target>:
  401030:	55                   	push   %rbp
  401031:	53                   	push   %rbx
  401032:	48 81 ec 18 21 00 00 	sub    $0x2118,%rsp
  401039:	89 f5                	mov    %esi,%ebp
  40103b:	64 48 8b 04 25 28 00 	mov    %fs:0x28,%rax
  401042:	00 00 
  401044:	48 89 84 24 08 21 00 	mov    %rax,0x2108(%rsp)
  40104b:	00 
  40104c:	31 c0                	xor    %eax,%eax
  40104e:	89 3d a4 49 20 00    	mov    %edi,0x2049a4(%rip)        # 6059f8 <check_level>
  401054:	8b 3d 0e 41 20 00    	mov    0x20410e(%rip),%edi        # 605168 <target_id>
  40105a:	e8 e2 1c 00 00       	callq  402d41 <gencookie>
  40105f:	89 05 9f 49 20 00    	mov    %eax,0x20499f(%rip)        # 605a04 <cookie>
  401065:	89 c7                	mov    %eax,%edi
  401067:	e8 d5 1c 00 00       	callq  402d41 <gencookie>
  40106c:	89 05 8e 49 20 00    	mov    %eax,0x20498e(%rip)        # 605a00 <authkey>
  401072:	8b 05 f0 40 20 00    	mov    0x2040f0(%rip),%eax        # 605168 <target_id>
  401078:	8d 78 01             	lea    0x1(%rax),%edi
  40107b:	e8 20 fc ff ff       	callq  400ca0 <srandom@plt>
  401080:	e8 3b fd ff ff       	callq  400dc0 <random@plt>
  401085:	89 c7                	mov    %eax,%edi
  401087:	e8 03 03 00 00       	callq  40138f <scramble>
  40108c:	89 c3                	mov    %eax,%ebx
  40108e:	85 ed                	test   %ebp,%ebp
  401090:	74 18                	je     4010aa <initialize_target+0x7a>
  401092:	bf 00 00 00 00       	mov    $0x0,%edi
  401097:	e8 14 fd ff ff       	callq  400db0 <time@plt>
  40109c:	89 c7                	mov    %eax,%edi
  40109e:	e8 fd fb ff ff       	callq  400ca0 <srandom@plt>
  4010a3:	e8 18 fd ff ff       	callq  400dc0 <random@plt>
  4010a8:	eb 05                	jmp    4010af <initialize_target+0x7f>
  4010aa:	b8 00 00 00 00       	mov    $0x0,%eax
  4010af:	01 c3                	add    %eax,%ebx
  4010b1:	0f b7 db             	movzwl %bx,%ebx
  4010b4:	8d 04 dd 00 01 00 00 	lea    0x100(,%rbx,8),%eax
  4010bb:	89 c0                	mov    %eax,%eax
  4010bd:	48 89 05 bc 48 20 00 	mov    %rax,0x2048bc(%rip)        # 605980 <buf_offset>
  4010c4:	c6 05 5d 55 20 00 63 	movb   $0x63,0x20555d(%rip)        # 606628 <target_prefix>
  4010cb:	83 3d b6 48 20 00 00 	cmpl   $0x0,0x2048b6(%rip)        # 605988 <notify>
  4010d2:	0f 84 bb 00 00 00    	je     401193 <initialize_target+0x163>
  4010d8:	83 3d 29 49 20 00 00 	cmpl   $0x0,0x204929(%rip)        # 605a08 <is_checker>
  4010df:	0f 85 ae 00 00 00    	jne    401193 <initialize_target+0x163>
  4010e5:	be 00 01 00 00       	mov    $0x100,%esi
  4010ea:	48 89 e7             	mov    %rsp,%rdi
  4010ed:	e8 4e fd ff ff       	callq  400e40 <gethostname@plt>
  4010f2:	85 c0                	test   %eax,%eax
  4010f4:	74 25                	je     40111b <initialize_target+0xeb>
  4010f6:	bf c8 2e 40 00       	mov    $0x402ec8,%edi
  4010fb:	e8 d0 fb ff ff       	callq  400cd0 <puts@plt>
  401100:	bf 08 00 00 00       	mov    $0x8,%edi
  401105:	e8 46 fd ff ff       	callq  400e50 <exit@plt>
  40110a:	48 89 e6             	mov    %rsp,%rsi
  40110d:	e8 6e fb ff ff       	callq  400c80 <strcasecmp@plt>
  401112:	85 c0                	test   %eax,%eax
  401114:	74 21                	je     401137 <initialize_target+0x107>
  401116:	83 c3 01             	add    $0x1,%ebx
  401119:	eb 05                	jmp    401120 <initialize_target+0xf0>
  40111b:	bb 00 00 00 00       	mov    $0x0,%ebx
  401120:	48 63 c3             	movslq %ebx,%rax
  401123:	48 8b 3c c5 80 51 60 	mov    0x605180(,%rax,8),%rdi
  40112a:	00 
  40112b:	48 85 ff             	test   %rdi,%rdi
  40112e:	75 da                	jne    40110a <initialize_target+0xda>
  401130:	b8 00 00 00 00       	mov    $0x0,%eax
  401135:	eb 05                	jmp    40113c <initialize_target+0x10c>
  401137:	b8 01 00 00 00       	mov    $0x1,%eax
  40113c:	85 c0                	test   %eax,%eax
  40113e:	75 1c                	jne    40115c <initialize_target+0x12c>
  401140:	48 89 e2             	mov    %rsp,%rdx
  401143:	be 00 2f 40 00       	mov    $0x402f00,%esi
  401148:	bf 01 00 00 00       	mov    $0x1,%edi
  40114d:	e8 ae fc ff ff       	callq  400e00 <__printf_chk@plt>
  401152:	bf 08 00 00 00       	mov    $0x8,%edi
  401157:	e8 f4 fc ff ff       	callq  400e50 <exit@plt>
  40115c:	48 8d bc 24 00 01 00 	lea    0x100(%rsp),%rdi
  401163:	00 
  401164:	e8 42 19 00 00       	callq  402aab <init_driver>
  401169:	85 c0                	test   %eax,%eax
  40116b:	79 26                	jns    401193 <initialize_target+0x163>
  40116d:	48 8d 94 24 00 01 00 	lea    0x100(%rsp),%rdx
  401174:	00 
  401175:	be 40 2f 40 00       	mov    $0x402f40,%esi
  40117a:	bf 01 00 00 00       	mov    $0x1,%edi
  40117f:	b8 00 00 00 00       	mov    $0x0,%eax
  401184:	e8 77 fc ff ff       	callq  400e00 <__printf_chk@plt>
  401189:	bf 08 00 00 00       	mov    $0x8,%edi
  40118e:	e8 bd fc ff ff       	callq  400e50 <exit@plt>
  401193:	48 8b 84 24 08 21 00 	mov    0x2108(%rsp),%rax
  40119a:	00 
  40119b:	64 48 33 04 25 28 00 	xor    %fs:0x28,%rax
  4011a2:	00 00 
  4011a4:	74 05                	je     4011ab <initialize_target+0x17b>
  4011a6:	e8 45 fb ff ff       	callq  400cf0 <__stack_chk_fail@plt>
  4011ab:	48 81 c4 18 21 00 00 	add    $0x2118,%rsp
  4011b2:	5b                   	pop    %rbx
  4011b3:	5d                   	pop    %rbp
  4011b4:	c3                   	retq   

00000000004011b5 <main>:
  4011b5:	41 56                	push   %r14
  4011b7:	41 55                	push   %r13
  4011b9:	41 54                	push   %r12
  4011bb:	55                   	push   %rbp
  4011bc:	53                   	push   %rbx
  4011bd:	41 89 fc             	mov    %edi,%r12d
  4011c0:	48 89 f3             	mov    %rsi,%rbx
  4011c3:	be e6 1d 40 00       	mov    $0x401de6,%esi
  4011c8:	bf 0b 00 00 00       	mov    $0xb,%edi
  4011cd:	e8 8e fb ff ff       	callq  400d60 <signal@plt>
  4011d2:	be 98 1d 40 00       	mov    $0x401d98,%esi
  4011d7:	bf 07 00 00 00       	mov    $0x7,%edi
  4011dc:	e8 7f fb ff ff       	callq  400d60 <signal@plt>
  4011e1:	be 34 1e 40 00       	mov    $0x401e34,%esi
  4011e6:	bf 04 00 00 00       	mov    $0x4,%edi
  4011eb:	e8 70 fb ff ff       	callq  400d60 <signal@plt>
  4011f0:	83 3d 11 48 20 00 00 	cmpl   $0x0,0x204811(%rip)        # 605a08 <is_checker>
  4011f7:	74 20                	je     401219 <main+0x64>
  4011f9:	be 82 1e 40 00       	mov    $0x401e82,%esi
  4011fe:	bf 0e 00 00 00       	mov    $0xe,%edi
  401203:	e8 58 fb ff ff       	callq  400d60 <signal@plt>
  401208:	bf 05 00 00 00       	mov    $0x5,%edi
  40120d:	e8 0e fb ff ff       	callq  400d20 <alarm@plt>
  401212:	bd 0a 30 40 00       	mov    $0x40300a,%ebp
  401217:	eb 05                	jmp    40121e <main+0x69>
  401219:	bd 05 30 40 00       	mov    $0x403005,%ebp
  40121e:	48 8b 05 7b 47 20 00 	mov    0x20477b(%rip),%rax        # 6059a0 <stdin@@GLIBC_2.2.5>
  401225:	48 89 05 c4 47 20 00 	mov    %rax,0x2047c4(%rip)        # 6059f0 <infile>
  40122c:	41 bd 00 00 00 00    	mov    $0x0,%r13d
  401232:	41 be 00 00 00 00    	mov    $0x0,%r14d
  401238:	e9 c6 00 00 00       	jmpq   401303 <main+0x14e>
  40123d:	83 e8 61             	sub    $0x61,%eax
  401240:	3c 10                	cmp    $0x10,%al
  401242:	0f 87 9c 00 00 00    	ja     4012e4 <main+0x12f>
  401248:	0f b6 c0             	movzbl %al,%eax
  40124b:	ff 24 c5 50 30 40 00 	jmpq   *0x403050(,%rax,8)
  401252:	48 8b 3b             	mov    (%rbx),%rdi
  401255:	e8 4c fd ff ff       	callq  400fa6 <usage>
  40125a:	be 52 36 40 00       	mov    $0x403652,%esi
  40125f:	48 8b 3d 42 47 20 00 	mov    0x204742(%rip),%rdi        # 6059a8 <optarg@@GLIBC_2.2.5>
  401266:	e8 a5 fb ff ff       	callq  400e10 <fopen@plt>
  40126b:	48 89 05 7e 47 20 00 	mov    %rax,0x20477e(%rip)        # 6059f0 <infile>
  401272:	48 85 c0             	test   %rax,%rax
  401275:	0f 85 88 00 00 00    	jne    401303 <main+0x14e>
  40127b:	48 8b 0d 26 47 20 00 	mov    0x204726(%rip),%rcx        # 6059a8 <optarg@@GLIBC_2.2.5>
  401282:	ba 12 30 40 00       	mov    $0x403012,%edx
  401287:	be 01 00 00 00       	mov    $0x1,%esi
  40128c:	48 8b 3d 2d 47 20 00 	mov    0x20472d(%rip),%rdi        # 6059c0 <stderr@@GLIBC_2.2.5>
  401293:	e8 d8 fb ff ff       	callq  400e70 <__fprintf_chk@plt>
  401298:	b8 01 00 00 00       	mov    $0x1,%eax
  40129d:	e9 e4 00 00 00       	jmpq   401386 <main+0x1d1>
  4012a2:	ba 10 00 00 00       	mov    $0x10,%edx
  4012a7:	be 00 00 00 00       	mov    $0x0,%esi
  4012ac:	48 8b 3d f5 46 20 00 	mov    0x2046f5(%rip),%rdi        # 6059a8 <optarg@@GLIBC_2.2.5>
  4012b3:	e8 78 fb ff ff       	callq  400e30 <strtoul@plt>
  4012b8:	41 89 c6             	mov    %eax,%r14d
  4012bb:	eb 46                	jmp    401303 <main+0x14e>
  4012bd:	ba 0a 00 00 00       	mov    $0xa,%edx
  4012c2:	be 00 00 00 00       	mov    $0x0,%esi
  4012c7:	48 8b 3d da 46 20 00 	mov    0x2046da(%rip),%rdi        # 6059a8 <optarg@@GLIBC_2.2.5>
  4012ce:	e8 bd fa ff ff       	callq  400d90 <strtol@plt>
  4012d3:	41 89 c5             	mov    %eax,%r13d
  4012d6:	eb 2b                	jmp    401303 <main+0x14e>
  4012d8:	c7 05 a6 46 20 00 00 	movl   $0x0,0x2046a6(%rip)        # 605988 <notify>
  4012df:	00 00 00 
  4012e2:	eb 1f                	jmp    401303 <main+0x14e>
  4012e4:	0f be d2             	movsbl %dl,%edx
  4012e7:	be 2f 30 40 00       	mov    $0x40302f,%esi
  4012ec:	bf 01 00 00 00       	mov    $0x1,%edi
  4012f1:	b8 00 00 00 00       	mov    $0x0,%eax
  4012f6:	e8 05 fb ff ff       	callq  400e00 <__printf_chk@plt>
  4012fb:	48 8b 3b             	mov    (%rbx),%rdi
  4012fe:	e8 a3 fc ff ff       	callq  400fa6 <usage>
  401303:	48 89 ea             	mov    %rbp,%rdx
  401306:	48 89 de             	mov    %rbx,%rsi
  401309:	44 89 e7             	mov    %r12d,%edi
  40130c:	e8 0f fb ff ff       	callq  400e20 <getopt@plt>
  401311:	89 c2                	mov    %eax,%edx
  401313:	3c ff                	cmp    $0xff,%al
  401315:	0f 85 22 ff ff ff    	jne    40123d <main+0x88>
  40131b:	be 00 00 00 00       	mov    $0x0,%esi
  401320:	44 89 ef             	mov    %r13d,%edi
  401323:	e8 08 fd ff ff       	callq  401030 <initialize_target>
  401328:	83 3d d9 46 20 00 00 	cmpl   $0x0,0x2046d9(%rip)        # 605a08 <is_checker>
  40132f:	74 2a                	je     40135b <main+0x1a6>
  401331:	44 3b 35 c8 46 20 00 	cmp    0x2046c8(%rip),%r14d        # 605a00 <authkey>
  401338:	74 21                	je     40135b <main+0x1a6>
  40133a:	44 89 f2             	mov    %r14d,%edx
  40133d:	be 68 2f 40 00       	mov    $0x402f68,%esi
  401342:	bf 01 00 00 00       	mov    $0x1,%edi
  401347:	b8 00 00 00 00       	mov    $0x0,%eax
  40134c:	e8 af fa ff ff       	callq  400e00 <__printf_chk@plt>
  401351:	b8 00 00 00 00       	mov    $0x0,%eax
  401356:	e8 d9 06 00 00       	callq  401a34 <check_fail>
  40135b:	8b 15 a3 46 20 00    	mov    0x2046a3(%rip),%edx        # 605a04 <cookie>
  401361:	be 42 30 40 00       	mov    $0x403042,%esi
  401366:	bf 01 00 00 00       	mov    $0x1,%edi
  40136b:	b8 00 00 00 00       	mov    $0x0,%eax
  401370:	e8 8b fa ff ff       	callq  400e00 <__printf_chk@plt>
  401375:	48 8b 3d 04 46 20 00 	mov    0x204604(%rip),%rdi        # 605980 <buf_offset>
  40137c:	e8 01 0c 00 00       	callq  401f82 <stable_launch>
  401381:	b8 00 00 00 00       	mov    $0x0,%eax
  401386:	5b                   	pop    %rbx
  401387:	5d                   	pop    %rbp
  401388:	41 5c                	pop    %r12
  40138a:	41 5d                	pop    %r13
  40138c:	41 5e                	pop    %r14
  40138e:	c3                   	retq   

000000000040138f <scramble>:
  40138f:	48 83 ec 38          	sub    $0x38,%rsp
  401393:	64 48 8b 04 25 28 00 	mov    %fs:0x28,%rax
  40139a:	00 00 
  40139c:	48 89 44 24 28       	mov    %rax,0x28(%rsp)
  4013a1:	31 c0                	xor    %eax,%eax
  4013a3:	eb 10                	jmp    4013b5 <scramble+0x26>
  4013a5:	69 d0 9e c8 00 00    	imul   $0xc89e,%eax,%edx
  4013ab:	01 fa                	add    %edi,%edx
  4013ad:	89 c1                	mov    %eax,%ecx
  4013af:	89 14 8c             	mov    %edx,(%rsp,%rcx,4)
  4013b2:	83 c0 01             	add    $0x1,%eax
  4013b5:	83 f8 09             	cmp    $0x9,%eax
  4013b8:	76 eb                	jbe    4013a5 <scramble+0x16>
  4013ba:	8b 44 24 10          	mov    0x10(%rsp),%eax
  4013be:	69 c0 1e 05 00 00    	imul   $0x51e,%eax,%eax
  4013c4:	89 44 24 10          	mov    %eax,0x10(%rsp)
  4013c8:	8b 44 24 08          	mov    0x8(%rsp),%eax
  4013cc:	69 c0 98 ab 00 00    	imul   $0xab98,%eax,%eax
  4013d2:	89 44 24 08          	mov    %eax,0x8(%rsp)
  4013d6:	8b 44 24 24          	mov    0x24(%rsp),%eax
  4013da:	69 c0 20 b0 00 00    	imul   $0xb020,%eax,%eax
  4013e0:	89 44 24 24          	mov    %eax,0x24(%rsp)
  4013e4:	8b 44 24 24          	mov    0x24(%rsp),%eax
  4013e8:	69 c0 ef f2 00 00    	imul   $0xf2ef,%eax,%eax
  4013ee:	89 44 24 24          	mov    %eax,0x24(%rsp)
  4013f2:	8b 44 24 1c          	mov    0x1c(%rsp),%eax
  4013f6:	69 c0 32 07 00 00    	imul   $0x732,%eax,%eax
  4013fc:	89 44 24 1c          	mov    %eax,0x1c(%rsp)
  401400:	8b 44 24 0c          	mov    0xc(%rsp),%eax
  401404:	69 c0 dc d7 00 00    	imul   $0xd7dc,%eax,%eax
  40140a:	89 44 24 0c          	mov    %eax,0xc(%rsp)
  40140e:	8b 44 24 04          	mov    0x4(%rsp),%eax
  401412:	69 c0 33 9a 00 00    	imul   $0x9a33,%eax,%eax
  401418:	89 44 24 04          	mov    %eax,0x4(%rsp)
  40141c:	8b 44 24 04          	mov    0x4(%rsp),%eax
  401420:	69 c0 cf 57 00 00    	imul   $0x57cf,%eax,%eax
  401426:	89 44 24 04          	mov    %eax,0x4(%rsp)
  40142a:	8b 44 24 0c          	mov    0xc(%rsp),%eax
  40142e:	69 c0 a8 13 00 00    	imul   $0x13a8,%eax,%eax
  401434:	89 44 24 0c          	mov    %eax,0xc(%rsp)
  401438:	8b 44 24 04          	mov    0x4(%rsp),%eax
  40143c:	69 c0 09 8f 00 00    	imul   $0x8f09,%eax,%eax
  401442:	89 44 24 04          	mov    %eax,0x4(%rsp)
  401446:	8b 44 24 20          	mov    0x20(%rsp),%eax
  40144a:	69 c0 22 7a 00 00    	imul   $0x7a22,%eax,%eax
  401450:	89 44 24 20          	mov    %eax,0x20(%rsp)
  401454:	8b 44 24 08          	mov    0x8(%rsp),%eax
  401458:	69 c0 ae 31 00 00    	imul   $0x31ae,%eax,%eax
  40145e:	89 44 24 08          	mov    %eax,0x8(%rsp)
  401462:	8b 44 24 0c          	mov    0xc(%rsp),%eax
  401466:	69 c0 4d c8 00 00    	imul   $0xc84d,%eax,%eax
  40146c:	89 44 24 0c          	mov    %eax,0xc(%rsp)
  401470:	8b 44 24 24          	mov    0x24(%rsp),%eax
  401474:	69 c0 3a 24 00 00    	imul   $0x243a,%eax,%eax
  40147a:	89 44 24 24          	mov    %eax,0x24(%rsp)
  40147e:	8b 44 24 18          	mov    0x18(%rsp),%eax
  401482:	69 c0 37 73 00 00    	imul   $0x7337,%eax,%eax
  401488:	89 44 24 18          	mov    %eax,0x18(%rsp)
  40148c:	8b 44 24 04          	mov    0x4(%rsp),%eax
  401490:	69 c0 f9 0c 00 00    	imul   $0xcf9,%eax,%eax
  401496:	89 44 24 04          	mov    %eax,0x4(%rsp)
  40149a:	8b 44 24 24          	mov    0x24(%rsp),%eax
  40149e:	69 c0 db d8 00 00    	imul   $0xd8db,%eax,%eax
  4014a4:	89 44 24 24          	mov    %eax,0x24(%rsp)
  4014a8:	8b 44 24 1c          	mov    0x1c(%rsp),%eax
  4014ac:	69 c0 34 a5 00 00    	imul   $0xa534,%eax,%eax
  4014b2:	89 44 24 1c          	mov    %eax,0x1c(%rsp)
  4014b6:	8b 44 24 04          	mov    0x4(%rsp),%eax
  4014ba:	69 c0 e4 90 00 00    	imul   $0x90e4,%eax,%eax
  4014c0:	89 44 24 04          	mov    %eax,0x4(%rsp)
  4014c4:	8b 44 24 18          	mov    0x18(%rsp),%eax
  4014c8:	69 c0 22 13 00 00    	imul   $0x1322,%eax,%eax
  4014ce:	89 44 24 18          	mov    %eax,0x18(%rsp)
  4014d2:	8b 44 24 14          	mov    0x14(%rsp),%eax
  4014d6:	69 c0 80 90 00 00    	imul   $0x9080,%eax,%eax
  4014dc:	89 44 24 14          	mov    %eax,0x14(%rsp)
  4014e0:	8b 04 24             	mov    (%rsp),%eax
  4014e3:	69 c0 e9 7e 00 00    	imul   $0x7ee9,%eax,%eax
  4014e9:	89 04 24             	mov    %eax,(%rsp)
  4014ec:	8b 44 24 1c          	mov    0x1c(%rsp),%eax
  4014f0:	69 c0 2a 9d 00 00    	imul   $0x9d2a,%eax,%eax
  4014f6:	89 44 24 1c          	mov    %eax,0x1c(%rsp)
  4014fa:	8b 44 24 08          	mov    0x8(%rsp),%eax
  4014fe:	69 c0 fd 9e 00 00    	imul   $0x9efd,%eax,%eax
  401504:	89 44 24 08          	mov    %eax,0x8(%rsp)
  401508:	8b 44 24 18          	mov    0x18(%rsp),%eax
  40150c:	69 c0 a0 15 00 00    	imul   $0x15a0,%eax,%eax
  401512:	89 44 24 18          	mov    %eax,0x18(%rsp)
  401516:	8b 44 24 18          	mov    0x18(%rsp),%eax
  40151a:	69 c0 70 81 00 00    	imul   $0x8170,%eax,%eax
  401520:	89 44 24 18          	mov    %eax,0x18(%rsp)
  401524:	8b 04 24             	mov    (%rsp),%eax
  401527:	69 c0 09 d2 00 00    	imul   $0xd209,%eax,%eax
  40152d:	89 04 24             	mov    %eax,(%rsp)
  401530:	8b 04 24             	mov    (%rsp),%eax
  401533:	69 c0 40 96 00 00    	imul   $0x9640,%eax,%eax
  401539:	89 04 24             	mov    %eax,(%rsp)
  40153c:	8b 44 24 10          	mov    0x10(%rsp),%eax
  401540:	69 c0 40 e6 00 00    	imul   $0xe640,%eax,%eax
  401546:	89 44 24 10          	mov    %eax,0x10(%rsp)
  40154a:	8b 44 24 0c          	mov    0xc(%rsp),%eax
  40154e:	69 c0 b1 de 00 00    	imul   $0xdeb1,%eax,%eax
  401554:	89 44 24 0c          	mov    %eax,0xc(%rsp)
  401558:	8b 44 24 1c          	mov    0x1c(%rsp),%eax
  40155c:	69 c0 c3 44 00 00    	imul   $0x44c3,%eax,%eax
  401562:	89 44 24 1c          	mov    %eax,0x1c(%rsp)
  401566:	8b 44 24 18          	mov    0x18(%rsp),%eax
  40156a:	69 c0 cc d1 00 00    	imul   $0xd1cc,%eax,%eax
  401570:	89 44 24 18          	mov    %eax,0x18(%rsp)
  401574:	8b 04 24             	mov    (%rsp),%eax
  401577:	69 c0 3c a4 00 00    	imul   $0xa43c,%eax,%eax
  40157d:	89 04 24             	mov    %eax,(%rsp)
  401580:	8b 44 24 24          	mov    0x24(%rsp),%eax
  401584:	69 c0 99 a6 00 00    	imul   $0xa699,%eax,%eax
  40158a:	89 44 24 24          	mov    %eax,0x24(%rsp)
  40158e:	8b 44 24 08          	mov    0x8(%rsp),%eax
  401592:	69 c0 24 0f 00 00    	imul   $0xf24,%eax,%eax
  401598:	89 44 24 08          	mov    %eax,0x8(%rsp)
  40159c:	8b 44 24 10          	mov    0x10(%rsp),%eax
  4015a0:	69 c0 37 cd 00 00    	imul   $0xcd37,%eax,%eax
  4015a6:	89 44 24 10          	mov    %eax,0x10(%rsp)
  4015aa:	8b 44 24 1c          	mov    0x1c(%rsp),%eax
  4015ae:	69 c0 bb a4 00 00    	imul   $0xa4bb,%eax,%eax
  4015b4:	89 44 24 1c          	mov    %eax,0x1c(%rsp)
  4015b8:	8b 44 24 0c          	mov    0xc(%rsp),%eax
  4015bc:	69 c0 58 ca 00 00    	imul   $0xca58,%eax,%eax
  4015c2:	89 44 24 0c          	mov    %eax,0xc(%rsp)
  4015c6:	8b 44 24 20          	mov    0x20(%rsp),%eax
  4015ca:	69 c0 da 22 00 00    	imul   $0x22da,%eax,%eax
  4015d0:	89 44 24 20          	mov    %eax,0x20(%rsp)
  4015d4:	8b 44 24 20          	mov    0x20(%rsp),%eax
  4015d8:	69 c0 b8 f2 00 00    	imul   $0xf2b8,%eax,%eax
  4015de:	89 44 24 20          	mov    %eax,0x20(%rsp)
  4015e2:	8b 44 24 18          	mov    0x18(%rsp),%eax
  4015e6:	69 c0 5c 97 00 00    	imul   $0x975c,%eax,%eax
  4015ec:	89 44 24 18          	mov    %eax,0x18(%rsp)
  4015f0:	8b 44 24 14          	mov    0x14(%rsp),%eax
  4015f4:	69 c0 3d c8 00 00    	imul   $0xc83d,%eax,%eax
  4015fa:	89 44 24 14          	mov    %eax,0x14(%rsp)
  4015fe:	8b 44 24 14          	mov    0x14(%rsp),%eax
  401602:	69 c0 46 27 00 00    	imul   $0x2746,%eax,%eax
  401608:	89 44 24 14          	mov    %eax,0x14(%rsp)
  40160c:	8b 44 24 10          	mov    0x10(%rsp),%eax
  401610:	69 c0 bc 03 00 00    	imul   $0x3bc,%eax,%eax
  401616:	89 44 24 10          	mov    %eax,0x10(%rsp)
  40161a:	8b 44 24 24          	mov    0x24(%rsp),%eax
  40161e:	69 c0 f8 18 00 00    	imul   $0x18f8,%eax,%eax
  401624:	89 44 24 24          	mov    %eax,0x24(%rsp)
  401628:	8b 44 24 0c          	mov    0xc(%rsp),%eax
  40162c:	69 c0 fd 66 00 00    	imul   $0x66fd,%eax,%eax
  401632:	89 44 24 0c          	mov    %eax,0xc(%rsp)
  401636:	8b 44 24 10          	mov    0x10(%rsp),%eax
  40163a:	69 c0 18 ce 00 00    	imul   $0xce18,%eax,%eax
  401640:	89 44 24 10          	mov    %eax,0x10(%rsp)
  401644:	8b 44 24 1c          	mov    0x1c(%rsp),%eax
  401648:	69 c0 59 7b 00 00    	imul   $0x7b59,%eax,%eax
  40164e:	89 44 24 1c          	mov    %eax,0x1c(%rsp)
  401652:	8b 44 24 10          	mov    0x10(%rsp),%eax
  401656:	69 c0 ca af 00 00    	imul   $0xafca,%eax,%eax
  40165c:	89 44 24 10          	mov    %eax,0x10(%rsp)
  401660:	8b 04 24             	mov    (%rsp),%eax
  401663:	69 c0 76 a7 00 00    	imul   $0xa776,%eax,%eax
  401669:	89 04 24             	mov    %eax,(%rsp)
  40166c:	8b 44 24 0c          	mov    0xc(%rsp),%eax
  401670:	69 c0 ae db 00 00    	imul   $0xdbae,%eax,%eax
  401676:	89 44 24 0c          	mov    %eax,0xc(%rsp)
  40167a:	8b 44 24 14          	mov    0x14(%rsp),%eax
  40167e:	69 c0 93 5e 00 00    	imul   $0x5e93,%eax,%eax
  401684:	89 44 24 14          	mov    %eax,0x14(%rsp)
  401688:	8b 44 24 04          	mov    0x4(%rsp),%eax
  40168c:	69 c0 ce c0 00 00    	imul   $0xc0ce,%eax,%eax
  401692:	89 44 24 04          	mov    %eax,0x4(%rsp)
  401696:	8b 44 24 18          	mov    0x18(%rsp),%eax
  40169a:	69 c0 4f c2 00 00    	imul   $0xc24f,%eax,%eax
  4016a0:	89 44 24 18          	mov    %eax,0x18(%rsp)
  4016a4:	8b 44 24 04          	mov    0x4(%rsp),%eax
  4016a8:	69 c0 41 92 00 00    	imul   $0x9241,%eax,%eax
  4016ae:	89 44 24 04          	mov    %eax,0x4(%rsp)
  4016b2:	8b 44 24 20          	mov    0x20(%rsp),%eax
  4016b6:	69 c0 23 1c 00 00    	imul   $0x1c23,%eax,%eax
  4016bc:	89 44 24 20          	mov    %eax,0x20(%rsp)
  4016c0:	8b 44 24 08          	mov    0x8(%rsp),%eax
  4016c4:	69 c0 2f 29 00 00    	imul   $0x292f,%eax,%eax
  4016ca:	89 44 24 08          	mov    %eax,0x8(%rsp)
  4016ce:	8b 44 24 1c          	mov    0x1c(%rsp),%eax
  4016d2:	69 c0 03 93 00 00    	imul   $0x9303,%eax,%eax
  4016d8:	89 44 24 1c          	mov    %eax,0x1c(%rsp)
  4016dc:	8b 44 24 0c          	mov    0xc(%rsp),%eax
  4016e0:	69 c0 dd 42 00 00    	imul   $0x42dd,%eax,%eax
  4016e6:	89 44 24 0c          	mov    %eax,0xc(%rsp)
  4016ea:	8b 44 24 04          	mov    0x4(%rsp),%eax
  4016ee:	69 c0 fc 5d 00 00    	imul   $0x5dfc,%eax,%eax
  4016f4:	89 44 24 04          	mov    %eax,0x4(%rsp)
  4016f8:	8b 44 24 0c          	mov    0xc(%rsp),%eax
  4016fc:	69 c0 2d 79 00 00    	imul   $0x792d,%eax,%eax
  401702:	89 44 24 0c          	mov    %eax,0xc(%rsp)
  401706:	8b 44 24 04          	mov    0x4(%rsp),%eax
  40170a:	69 c0 90 b9 00 00    	imul   $0xb990,%eax,%eax
  401710:	89 44 24 04          	mov    %eax,0x4(%rsp)
  401714:	8b 44 24 1c          	mov    0x1c(%rsp),%eax
  401718:	69 c0 c3 fd 00 00    	imul   $0xfdc3,%eax,%eax
  40171e:	89 44 24 1c          	mov    %eax,0x1c(%rsp)
  401722:	8b 44 24 18          	mov    0x18(%rsp),%eax
  401726:	69 c0 9a b9 00 00    	imul   $0xb99a,%eax,%eax
  40172c:	89 44 24 18          	mov    %eax,0x18(%rsp)
  401730:	8b 44 24 20          	mov    0x20(%rsp),%eax
  401734:	69 c0 dc 56 00 00    	imul   $0x56dc,%eax,%eax
  40173a:	89 44 24 20          	mov    %eax,0x20(%rsp)
  40173e:	8b 04 24             	mov    (%rsp),%eax
  401741:	69 c0 7c 6c 00 00    	imul   $0x6c7c,%eax,%eax
  401747:	89 04 24             	mov    %eax,(%rsp)
  40174a:	8b 44 24 14          	mov    0x14(%rsp),%eax
  40174e:	69 c0 be d5 00 00    	imul   $0xd5be,%eax,%eax
  401754:	89 44 24 14          	mov    %eax,0x14(%rsp)
  401758:	8b 44 24 10          	mov    0x10(%rsp),%eax
  40175c:	69 c0 f4 b2 00 00    	imul   $0xb2f4,%eax,%eax
  401762:	89 44 24 10          	mov    %eax,0x10(%rsp)
  401766:	8b 44 24 04          	mov    0x4(%rsp),%eax
  40176a:	69 c0 fb f3 00 00    	imul   $0xf3fb,%eax,%eax
  401770:	89 44 24 04          	mov    %eax,0x4(%rsp)
  401774:	8b 04 24             	mov    (%rsp),%eax
  401777:	69 c0 35 7a 00 00    	imul   $0x7a35,%eax,%eax
  40177d:	89 04 24             	mov    %eax,(%rsp)
  401780:	8b 44 24 20          	mov    0x20(%rsp),%eax
  401784:	69 c0 4a 2a 00 00    	imul   $0x2a4a,%eax,%eax
  40178a:	89 44 24 20          	mov    %eax,0x20(%rsp)
  40178e:	8b 44 24 0c          	mov    0xc(%rsp),%eax
  401792:	69 c0 da af 00 00    	imul   $0xafda,%eax,%eax
  401798:	89 44 24 0c          	mov    %eax,0xc(%rsp)
  40179c:	8b 44 24 18          	mov    0x18(%rsp),%eax
  4017a0:	69 c0 b8 7a 00 00    	imul   $0x7ab8,%eax,%eax
  4017a6:	89 44 24 18          	mov    %eax,0x18(%rsp)
  4017aa:	ba 00 00 00 00       	mov    $0x0,%edx
  4017af:	b8 00 00 00 00       	mov    $0x0,%eax
  4017b4:	eb 0a                	jmp    4017c0 <scramble+0x431>
  4017b6:	89 d1                	mov    %edx,%ecx
  4017b8:	8b 0c 8c             	mov    (%rsp,%rcx,4),%ecx
  4017bb:	01 c8                	add    %ecx,%eax
  4017bd:	83 c2 01             	add    $0x1,%edx
  4017c0:	83 fa 09             	cmp    $0x9,%edx
  4017c3:	76 f1                	jbe    4017b6 <scramble+0x427>
  4017c5:	48 8b 74 24 28       	mov    0x28(%rsp),%rsi
  4017ca:	64 48 33 34 25 28 00 	xor    %fs:0x28,%rsi
  4017d1:	00 00 
  4017d3:	74 05                	je     4017da <scramble+0x44b>
  4017d5:	e8 16 f5 ff ff       	callq  400cf0 <__stack_chk_fail@plt>
  4017da:	48 83 c4 38          	add    $0x38,%rsp
  4017de:	c3                   	retq   

00000000004017df <getbuf>:
  4017df:	48 83 ec 28          	sub    $0x28,%rsp
  4017e3:	48 89 e7             	mov    %rsp,%rdi
  4017e6:	e8 7e 02 00 00       	callq  401a69 <Gets>
  4017eb:	b8 01 00 00 00       	mov    $0x1,%eax
  4017f0:	48 83 c4 28          	add    $0x28,%rsp
  4017f4:	c3                   	retq   

00000000004017f5 <touch1>:
  4017f5:	48 83 ec 08          	sub    $0x8,%rsp
  4017f9:	c7 05 f9 41 20 00 01 	movl   $0x1,0x2041f9(%rip)        # 6059fc <vlevel>
  401800:	00 00 00 
  401803:	bf 00 38 40 00       	mov    $0x403800,%edi
  401808:	e8 c3 f4 ff ff       	callq  400cd0 <puts@plt>
  40180d:	bf 01 00 00 00       	mov    $0x1,%edi
  401812:	e8 97 04 00 00       	callq  401cae <validate>
  401817:	bf 00 00 00 00       	mov    $0x0,%edi
  40181c:	e8 2f f6 ff ff       	callq  400e50 <exit@plt>

0000000000401821 <touch2>:
  401821:	48 83 ec 08          	sub    $0x8,%rsp
  401825:	89 fa                	mov    %edi,%edx
  401827:	c7 05 cb 41 20 00 02 	movl   $0x2,0x2041cb(%rip)        # 6059fc <vlevel>
  40182e:	00 00 00 
  401831:	39 3d cd 41 20 00    	cmp    %edi,0x2041cd(%rip)        # 605a04 <cookie>
  401837:	75 20                	jne    401859 <touch2+0x38>
  401839:	be 28 38 40 00       	mov    $0x403828,%esi
  40183e:	bf 01 00 00 00       	mov    $0x1,%edi
  401843:	b8 00 00 00 00       	mov    $0x0,%eax
  401848:	e8 b3 f5 ff ff       	callq  400e00 <__printf_chk@plt>
  40184d:	bf 02 00 00 00       	mov    $0x2,%edi
  401852:	e8 57 04 00 00       	callq  401cae <validate>
  401857:	eb 1e                	jmp    401877 <touch2+0x56>
  401859:	be 50 38 40 00       	mov    $0x403850,%esi
  40185e:	bf 01 00 00 00       	mov    $0x1,%edi
  401863:	b8 00 00 00 00       	mov    $0x0,%eax
  401868:	e8 93 f5 ff ff       	callq  400e00 <__printf_chk@plt>
  40186d:	bf 02 00 00 00       	mov    $0x2,%edi
  401872:	e8 f9 04 00 00       	callq  401d70 <fail>
  401877:	bf 00 00 00 00       	mov    $0x0,%edi
  40187c:	e8 cf f5 ff ff       	callq  400e50 <exit@plt>

0000000000401881 <hexmatch>:
  401881:	41 54                	push   %r12
  401883:	55                   	push   %rbp
  401884:	53                   	push   %rbx
  401885:	48 83 c4 80          	add    $0xffffffffffffff80,%rsp
  401889:	89 fd                	mov    %edi,%ebp
  40188b:	48 89 f3             	mov    %rsi,%rbx
  40188e:	64 48 8b 04 25 28 00 	mov    %fs:0x28,%rax
  401895:	00 00 
  401897:	48 89 44 24 78       	mov    %rax,0x78(%rsp)
  40189c:	31 c0                	xor    %eax,%eax
  40189e:	e8 1d f5 ff ff       	callq  400dc0 <random@plt>
  4018a3:	48 89 c1             	mov    %rax,%rcx
  4018a6:	48 ba 0b d7 a3 70 3d 	movabs $0xa3d70a3d70a3d70b,%rdx
  4018ad:	0a d7 a3 
  4018b0:	48 f7 ea             	imul   %rdx
  4018b3:	48 01 ca             	add    %rcx,%rdx
  4018b6:	48 c1 fa 06          	sar    $0x6,%rdx
  4018ba:	48 89 c8             	mov    %rcx,%rax
  4018bd:	48 c1 f8 3f          	sar    $0x3f,%rax
  4018c1:	48 29 c2             	sub    %rax,%rdx
  4018c4:	48 8d 04 92          	lea    (%rdx,%rdx,4),%rax
  4018c8:	48 8d 14 80          	lea    (%rax,%rax,4),%rdx
  4018cc:	48 8d 04 95 00 00 00 	lea    0x0(,%rdx,4),%rax
  4018d3:	00 
  4018d4:	48 29 c1             	sub    %rax,%rcx
  4018d7:	4c 8d 24 0c          	lea    (%rsp,%rcx,1),%r12
  4018db:	41 89 e8             	mov    %ebp,%r8d
  4018de:	b9 1d 38 40 00       	mov    $0x40381d,%ecx
  4018e3:	48 c7 c2 ff ff ff ff 	mov    $0xffffffffffffffff,%rdx
  4018ea:	be 01 00 00 00       	mov    $0x1,%esi
  4018ef:	4c 89 e7             	mov    %r12,%rdi
  4018f2:	b8 00 00 00 00       	mov    $0x0,%eax
  4018f7:	e8 84 f5 ff ff       	callq  400e80 <__sprintf_chk@plt>
  4018fc:	ba 09 00 00 00       	mov    $0x9,%edx
  401901:	4c 89 e6             	mov    %r12,%rsi
  401904:	48 89 df             	mov    %rbx,%rdi
  401907:	e8 a4 f3 ff ff       	callq  400cb0 <strncmp@plt>
  40190c:	85 c0                	test   %eax,%eax
  40190e:	0f 94 c0             	sete   %al
  401911:	48 8b 5c 24 78       	mov    0x78(%rsp),%rbx
  401916:	64 48 33 1c 25 28 00 	xor    %fs:0x28,%rbx
  40191d:	00 00 
  40191f:	74 05                	je     401926 <hexmatch+0xa5>
  401921:	e8 ca f3 ff ff       	callq  400cf0 <__stack_chk_fail@plt>
  401926:	0f b6 c0             	movzbl %al,%eax
  401929:	48 83 ec 80          	sub    $0xffffffffffffff80,%rsp
  40192d:	5b                   	pop    %rbx
  40192e:	5d                   	pop    %rbp
  40192f:	41 5c                	pop    %r12
  401931:	c3                   	retq   

0000000000401932 <touch3>:
  401932:	53                   	push   %rbx
  401933:	48 89 fb             	mov    %rdi,%rbx
  401936:	c7 05 bc 40 20 00 03 	movl   $0x3,0x2040bc(%rip)        # 6059fc <vlevel>
  40193d:	00 00 00 
  401940:	48 89 fe             	mov    %rdi,%rsi
  401943:	8b 3d bb 40 20 00    	mov    0x2040bb(%rip),%edi        # 605a04 <cookie>
  401949:	e8 33 ff ff ff       	callq  401881 <hexmatch>
  40194e:	85 c0                	test   %eax,%eax
  401950:	74 23                	je     401975 <touch3+0x43>
  401952:	48 89 da             	mov    %rbx,%rdx
  401955:	be 78 38 40 00       	mov    $0x403878,%esi
  40195a:	bf 01 00 00 00       	mov    $0x1,%edi
  40195f:	b8 00 00 00 00       	mov    $0x0,%eax
  401964:	e8 97 f4 ff ff       	callq  400e00 <__printf_chk@plt>
  401969:	bf 03 00 00 00       	mov    $0x3,%edi
  40196e:	e8 3b 03 00 00       	callq  401cae <validate>
  401973:	eb 21                	jmp    401996 <touch3+0x64>
  401975:	48 89 da             	mov    %rbx,%rdx
  401978:	be a0 38 40 00       	mov    $0x4038a0,%esi
  40197d:	bf 01 00 00 00       	mov    $0x1,%edi
  401982:	b8 00 00 00 00       	mov    $0x0,%eax
  401987:	e8 74 f4 ff ff       	callq  400e00 <__printf_chk@plt>
  40198c:	bf 03 00 00 00       	mov    $0x3,%edi
  401991:	e8 da 03 00 00       	callq  401d70 <fail>
  401996:	bf 00 00 00 00       	mov    $0x0,%edi
  40199b:	e8 b0 f4 ff ff       	callq  400e50 <exit@plt>

00000000004019a0 <test>:
  4019a0:	48 83 ec 08          	sub    $0x8,%rsp
  4019a4:	b8 00 00 00 00       	mov    $0x0,%eax
  4019a9:	e8 31 fe ff ff       	callq  4017df <getbuf>
  4019ae:	89 c2                	mov    %eax,%edx
  4019b0:	be c8 38 40 00       	mov    $0x4038c8,%esi
  4019b5:	bf 01 00 00 00       	mov    $0x1,%edi
  4019ba:	b8 00 00 00 00       	mov    $0x0,%eax
  4019bf:	e8 3c f4 ff ff       	callq  400e00 <__printf_chk@plt>
  4019c4:	48 83 c4 08          	add    $0x8,%rsp
  4019c8:	c3                   	retq   

00000000004019c9 <save_char>:
  4019c9:	8b 05 55 4c 20 00    	mov    0x204c55(%rip),%eax        # 606624 <gets_cnt>
  4019cf:	3d ff 03 00 00       	cmp    $0x3ff,%eax
  4019d4:	7f 49                	jg     401a1f <save_char+0x56>
  4019d6:	8d 14 40             	lea    (%rax,%rax,2),%edx
  4019d9:	89 f9                	mov    %edi,%ecx
  4019db:	c0 e9 04             	shr    $0x4,%cl
  4019de:	83 e1 0f             	and    $0xf,%ecx
  4019e1:	0f b6 b1 f0 3b 40 00 	movzbl 0x403bf0(%rcx),%esi
  4019e8:	48 63 ca             	movslq %edx,%rcx
  4019eb:	40 88 b1 20 5a 60 00 	mov    %sil,0x605a20(%rcx)
  4019f2:	8d 4a 01             	lea    0x1(%rdx),%ecx
  4019f5:	83 e7 0f             	and    $0xf,%edi
  4019f8:	0f b6 b7 f0 3b 40 00 	movzbl 0x403bf0(%rdi),%esi
  4019ff:	48 63 c9             	movslq %ecx,%rcx
  401a02:	40 88 b1 20 5a 60 00 	mov    %sil,0x605a20(%rcx)
  401a09:	83 c2 02             	add    $0x2,%edx
  401a0c:	48 63 d2             	movslq %edx,%rdx
  401a0f:	c6 82 20 5a 60 00 20 	movb   $0x20,0x605a20(%rdx)
  401a16:	83 c0 01             	add    $0x1,%eax
  401a19:	89 05 05 4c 20 00    	mov    %eax,0x204c05(%rip)        # 606624 <gets_cnt>
  401a1f:	f3 c3                	repz retq 

0000000000401a21 <save_term>:
  401a21:	8b 05 fd 4b 20 00    	mov    0x204bfd(%rip),%eax        # 606624 <gets_cnt>
  401a27:	8d 04 40             	lea    (%rax,%rax,2),%eax
  401a2a:	48 98                	cltq   
  401a2c:	c6 80 20 5a 60 00 00 	movb   $0x0,0x605a20(%rax)
  401a33:	c3                   	retq   

0000000000401a34 <check_fail>:
  401a34:	48 83 ec 08          	sub    $0x8,%rsp
  401a38:	0f be 15 e9 4b 20 00 	movsbl 0x204be9(%rip),%edx        # 606628 <target_prefix>
  401a3f:	41 b8 20 5a 60 00    	mov    $0x605a20,%r8d
  401a45:	8b 0d ad 3f 20 00    	mov    0x203fad(%rip),%ecx        # 6059f8 <check_level>
  401a4b:	be eb 38 40 00       	mov    $0x4038eb,%esi
  401a50:	bf 01 00 00 00       	mov    $0x1,%edi
  401a55:	b8 00 00 00 00       	mov    $0x0,%eax
  401a5a:	e8 a1 f3 ff ff       	callq  400e00 <__printf_chk@plt>
  401a5f:	bf 01 00 00 00       	mov    $0x1,%edi
  401a64:	e8 e7 f3 ff ff       	callq  400e50 <exit@plt>

0000000000401a69 <Gets>:
  401a69:	41 54                	push   %r12
  401a6b:	55                   	push   %rbp
  401a6c:	53                   	push   %rbx
  401a6d:	49 89 fc             	mov    %rdi,%r12
  401a70:	c7 05 aa 4b 20 00 00 	movl   $0x0,0x204baa(%rip)        # 606624 <gets_cnt>
  401a77:	00 00 00 
  401a7a:	48 89 fb             	mov    %rdi,%rbx
  401a7d:	eb 11                	jmp    401a90 <Gets+0x27>
  401a7f:	48 8d 6b 01          	lea    0x1(%rbx),%rbp
  401a83:	88 03                	mov    %al,(%rbx)
  401a85:	0f b6 f8             	movzbl %al,%edi
  401a88:	e8 3c ff ff ff       	callq  4019c9 <save_char>
  401a8d:	48 89 eb             	mov    %rbp,%rbx
  401a90:	48 8b 3d 59 3f 20 00 	mov    0x203f59(%rip),%rdi        # 6059f0 <infile>
  401a97:	e8 34 f3 ff ff       	callq  400dd0 <_IO_getc@plt>
  401a9c:	83 f8 ff             	cmp    $0xffffffff,%eax
  401a9f:	74 05                	je     401aa6 <Gets+0x3d>
  401aa1:	83 f8 0a             	cmp    $0xa,%eax
  401aa4:	75 d9                	jne    401a7f <Gets+0x16>
  401aa6:	c6 03 00             	movb   $0x0,(%rbx)
  401aa9:	b8 00 00 00 00       	mov    $0x0,%eax
  401aae:	e8 6e ff ff ff       	callq  401a21 <save_term>
  401ab3:	4c 89 e0             	mov    %r12,%rax
  401ab6:	5b                   	pop    %rbx
  401ab7:	5d                   	pop    %rbp
  401ab8:	41 5c                	pop    %r12
  401aba:	c3                   	retq   

0000000000401abb <notify_server>:
  401abb:	53                   	push   %rbx
  401abc:	48 81 ec 10 40 00 00 	sub    $0x4010,%rsp
  401ac3:	64 48 8b 04 25 28 00 	mov    %fs:0x28,%rax
  401aca:	00 00 
  401acc:	48 89 84 24 08 40 00 	mov    %rax,0x4008(%rsp)
  401ad3:	00 
  401ad4:	31 c0                	xor    %eax,%eax
  401ad6:	83 3d 2b 3f 20 00 00 	cmpl   $0x0,0x203f2b(%rip)        # 605a08 <is_checker>
  401add:	0f 85 aa 01 00 00    	jne    401c8d <notify_server+0x1d2>
  401ae3:	89 fb                	mov    %edi,%ebx
  401ae5:	8b 05 39 4b 20 00    	mov    0x204b39(%rip),%eax        # 606624 <gets_cnt>
  401aeb:	83 c0 64             	add    $0x64,%eax
  401aee:	3d 00 20 00 00       	cmp    $0x2000,%eax
  401af3:	7e 1e                	jle    401b13 <notify_server+0x58>
  401af5:	be 20 3a 40 00       	mov    $0x403a20,%esi
  401afa:	bf 01 00 00 00       	mov    $0x1,%edi
  401aff:	b8 00 00 00 00       	mov    $0x0,%eax
  401b04:	e8 f7 f2 ff ff       	callq  400e00 <__printf_chk@plt>
  401b09:	bf 01 00 00 00       	mov    $0x1,%edi
  401b0e:	e8 3d f3 ff ff       	callq  400e50 <exit@plt>
  401b13:	0f be 05 0e 4b 20 00 	movsbl 0x204b0e(%rip),%eax        # 606628 <target_prefix>
  401b1a:	83 3d 67 3e 20 00 00 	cmpl   $0x0,0x203e67(%rip)        # 605988 <notify>
  401b21:	74 08                	je     401b2b <notify_server+0x70>
  401b23:	8b 15 d7 3e 20 00    	mov    0x203ed7(%rip),%edx        # 605a00 <authkey>
  401b29:	eb 05                	jmp    401b30 <notify_server+0x75>
  401b2b:	ba ff ff ff ff       	mov    $0xffffffff,%edx
  401b30:	85 db                	test   %ebx,%ebx
  401b32:	74 08                	je     401b3c <notify_server+0x81>
  401b34:	41 b9 01 39 40 00    	mov    $0x403901,%r9d
  401b3a:	eb 06                	jmp    401b42 <notify_server+0x87>
  401b3c:	41 b9 06 39 40 00    	mov    $0x403906,%r9d
  401b42:	68 20 5a 60 00       	pushq  $0x605a20
  401b47:	56                   	push   %rsi
  401b48:	50                   	push   %rax
  401b49:	52                   	push   %rdx
  401b4a:	44 8b 05 17 36 20 00 	mov    0x203617(%rip),%r8d        # 605168 <target_id>
  401b51:	b9 0b 39 40 00       	mov    $0x40390b,%ecx
  401b56:	ba 00 20 00 00       	mov    $0x2000,%edx
  401b5b:	be 01 00 00 00       	mov    $0x1,%esi
  401b60:	48 8d 7c 24 20       	lea    0x20(%rsp),%rdi
  401b65:	b8 00 00 00 00       	mov    $0x0,%eax
  401b6a:	e8 11 f3 ff ff       	callq  400e80 <__sprintf_chk@plt>
  401b6f:	48 83 c4 20          	add    $0x20,%rsp
  401b73:	83 3d 0e 3e 20 00 00 	cmpl   $0x0,0x203e0e(%rip)        # 605988 <notify>
  401b7a:	0f 84 81 00 00 00    	je     401c01 <notify_server+0x146>
  401b80:	85 db                	test   %ebx,%ebx
  401b82:	74 6e                	je     401bf2 <notify_server+0x137>
  401b84:	4c 8d 8c 24 00 20 00 	lea    0x2000(%rsp),%r9
  401b8b:	00 
  401b8c:	41 b8 00 00 00 00    	mov    $0x0,%r8d
  401b92:	48 89 e1             	mov    %rsp,%rcx
  401b95:	48 8b 15 d4 35 20 00 	mov    0x2035d4(%rip),%rdx        # 605170 <lab>
  401b9c:	48 8b 35 d5 35 20 00 	mov    0x2035d5(%rip),%rsi        # 605178 <course>
  401ba3:	48 8b 3d b6 35 20 00 	mov    0x2035b6(%rip),%rdi        # 605160 <user_id>
  401baa:	e8 ef 10 00 00       	callq  402c9e <driver_post>
  401baf:	85 c0                	test   %eax,%eax
  401bb1:	79 26                	jns    401bd9 <notify_server+0x11e>
  401bb3:	48 8d 94 24 00 20 00 	lea    0x2000(%rsp),%rdx
  401bba:	00 
  401bbb:	be 27 39 40 00       	mov    $0x403927,%esi
  401bc0:	bf 01 00 00 00       	mov    $0x1,%edi
  401bc5:	b8 00 00 00 00       	mov    $0x0,%eax
  401bca:	e8 31 f2 ff ff       	callq  400e00 <__printf_chk@plt>
  401bcf:	bf 01 00 00 00       	mov    $0x1,%edi
  401bd4:	e8 77 f2 ff ff       	callq  400e50 <exit@plt>
  401bd9:	bf 50 3a 40 00       	mov    $0x403a50,%edi
  401bde:	e8 ed f0 ff ff       	callq  400cd0 <puts@plt>
  401be3:	bf 33 39 40 00       	mov    $0x403933,%edi
  401be8:	e8 e3 f0 ff ff       	callq  400cd0 <puts@plt>
  401bed:	e9 9b 00 00 00       	jmpq   401c8d <notify_server+0x1d2>
  401bf2:	bf 3d 39 40 00       	mov    $0x40393d,%edi
  401bf7:	e8 d4 f0 ff ff       	callq  400cd0 <puts@plt>
  401bfc:	e9 8c 00 00 00       	jmpq   401c8d <notify_server+0x1d2>
  401c01:	85 db                	test   %ebx,%ebx
  401c03:	74 07                	je     401c0c <notify_server+0x151>
  401c05:	ba 01 39 40 00       	mov    $0x403901,%edx
  401c0a:	eb 05                	jmp    401c11 <notify_server+0x156>
  401c0c:	ba 06 39 40 00       	mov    $0x403906,%edx
  401c11:	be 88 3a 40 00       	mov    $0x403a88,%esi
  401c16:	bf 01 00 00 00       	mov    $0x1,%edi
  401c1b:	b8 00 00 00 00       	mov    $0x0,%eax
  401c20:	e8 db f1 ff ff       	callq  400e00 <__printf_chk@plt>
  401c25:	48 8b 15 34 35 20 00 	mov    0x203534(%rip),%rdx        # 605160 <user_id>
  401c2c:	be 44 39 40 00       	mov    $0x403944,%esi
  401c31:	bf 01 00 00 00       	mov    $0x1,%edi
  401c36:	b8 00 00 00 00       	mov    $0x0,%eax
  401c3b:	e8 c0 f1 ff ff       	callq  400e00 <__printf_chk@plt>
  401c40:	48 8b 15 31 35 20 00 	mov    0x203531(%rip),%rdx        # 605178 <course>
  401c47:	be 51 39 40 00       	mov    $0x403951,%esi
  401c4c:	bf 01 00 00 00       	mov    $0x1,%edi
  401c51:	b8 00 00 00 00       	mov    $0x0,%eax
  401c56:	e8 a5 f1 ff ff       	callq  400e00 <__printf_chk@plt>
  401c5b:	48 8b 15 0e 35 20 00 	mov    0x20350e(%rip),%rdx        # 605170 <lab>
  401c62:	be 5d 39 40 00       	mov    $0x40395d,%esi
  401c67:	bf 01 00 00 00       	mov    $0x1,%edi
  401c6c:	b8 00 00 00 00       	mov    $0x0,%eax
  401c71:	e8 8a f1 ff ff       	callq  400e00 <__printf_chk@plt>
  401c76:	48 89 e2             	mov    %rsp,%rdx
  401c79:	be 66 39 40 00       	mov    $0x403966,%esi
  401c7e:	bf 01 00 00 00       	mov    $0x1,%edi
  401c83:	b8 00 00 00 00       	mov    $0x0,%eax
  401c88:	e8 73 f1 ff ff       	callq  400e00 <__printf_chk@plt>
  401c8d:	48 8b 84 24 08 40 00 	mov    0x4008(%rsp),%rax
  401c94:	00 
  401c95:	64 48 33 04 25 28 00 	xor    %fs:0x28,%rax
  401c9c:	00 00 
  401c9e:	74 05                	je     401ca5 <notify_server+0x1ea>
  401ca0:	e8 4b f0 ff ff       	callq  400cf0 <__stack_chk_fail@plt>
  401ca5:	48 81 c4 10 40 00 00 	add    $0x4010,%rsp
  401cac:	5b                   	pop    %rbx
  401cad:	c3                   	retq   

0000000000401cae <validate>:
  401cae:	53                   	push   %rbx
  401caf:	89 fb                	mov    %edi,%ebx
  401cb1:	83 3d 50 3d 20 00 00 	cmpl   $0x0,0x203d50(%rip)        # 605a08 <is_checker>
  401cb8:	74 6b                	je     401d25 <validate+0x77>
  401cba:	39 3d 3c 3d 20 00    	cmp    %edi,0x203d3c(%rip)        # 6059fc <vlevel>
  401cc0:	74 14                	je     401cd6 <validate+0x28>
  401cc2:	bf 72 39 40 00       	mov    $0x403972,%edi
  401cc7:	e8 04 f0 ff ff       	callq  400cd0 <puts@plt>
  401ccc:	b8 00 00 00 00       	mov    $0x0,%eax
  401cd1:	e8 5e fd ff ff       	callq  401a34 <check_fail>
  401cd6:	8b 15 1c 3d 20 00    	mov    0x203d1c(%rip),%edx        # 6059f8 <check_level>
  401cdc:	39 d7                	cmp    %edx,%edi
  401cde:	74 20                	je     401d00 <validate+0x52>
  401ce0:	89 f9                	mov    %edi,%ecx
  401ce2:	be b0 3a 40 00       	mov    $0x403ab0,%esi
  401ce7:	bf 01 00 00 00       	mov    $0x1,%edi
  401cec:	b8 00 00 00 00       	mov    $0x0,%eax
  401cf1:	e8 0a f1 ff ff       	callq  400e00 <__printf_chk@plt>
  401cf6:	b8 00 00 00 00       	mov    $0x0,%eax
  401cfb:	e8 34 fd ff ff       	callq  401a34 <check_fail>
  401d00:	0f be 15 21 49 20 00 	movsbl 0x204921(%rip),%edx        # 606628 <target_prefix>
  401d07:	41 b8 20 5a 60 00    	mov    $0x605a20,%r8d
  401d0d:	89 f9                	mov    %edi,%ecx
  401d0f:	be 90 39 40 00       	mov    $0x403990,%esi
  401d14:	bf 01 00 00 00       	mov    $0x1,%edi
  401d19:	b8 00 00 00 00       	mov    $0x0,%eax
  401d1e:	e8 dd f0 ff ff       	callq  400e00 <__printf_chk@plt>
  401d23:	eb 49                	jmp    401d6e <validate+0xc0>
  401d25:	3b 3d d1 3c 20 00    	cmp    0x203cd1(%rip),%edi        # 6059fc <vlevel>
  401d2b:	74 18                	je     401d45 <validate+0x97>
  401d2d:	bf 72 39 40 00       	mov    $0x403972,%edi
  401d32:	e8 99 ef ff ff       	callq  400cd0 <puts@plt>
  401d37:	89 de                	mov    %ebx,%esi
  401d39:	bf 00 00 00 00       	mov    $0x0,%edi
  401d3e:	e8 78 fd ff ff       	callq  401abb <notify_server>
  401d43:	eb 29                	jmp    401d6e <validate+0xc0>
  401d45:	0f be 0d dc 48 20 00 	movsbl 0x2048dc(%rip),%ecx        # 606628 <target_prefix>
  401d4c:	89 fa                	mov    %edi,%edx
  401d4e:	be d8 3a 40 00       	mov    $0x403ad8,%esi
  401d53:	bf 01 00 00 00       	mov    $0x1,%edi
  401d58:	b8 00 00 00 00       	mov    $0x0,%eax
  401d5d:	e8 9e f0 ff ff       	callq  400e00 <__printf_chk@plt>
  401d62:	89 de                	mov    %ebx,%esi
  401d64:	bf 01 00 00 00       	mov    $0x1,%edi
  401d69:	e8 4d fd ff ff       	callq  401abb <notify_server>
  401d6e:	5b                   	pop    %rbx
  401d6f:	c3                   	retq   

0000000000401d70 <fail>:
  401d70:	48 83 ec 08          	sub    $0x8,%rsp
  401d74:	83 3d 8d 3c 20 00 00 	cmpl   $0x0,0x203c8d(%rip)        # 605a08 <is_checker>
  401d7b:	74 0a                	je     401d87 <fail+0x17>
  401d7d:	b8 00 00 00 00       	mov    $0x0,%eax
  401d82:	e8 ad fc ff ff       	callq  401a34 <check_fail>
  401d87:	89 fe                	mov    %edi,%esi
  401d89:	bf 00 00 00 00       	mov    $0x0,%edi
  401d8e:	e8 28 fd ff ff       	callq  401abb <notify_server>
  401d93:	48 83 c4 08          	add    $0x8,%rsp
  401d97:	c3                   	retq   

0000000000401d98 <bushandler>:
  401d98:	48 83 ec 08          	sub    $0x8,%rsp
  401d9c:	83 3d 65 3c 20 00 00 	cmpl   $0x0,0x203c65(%rip)        # 605a08 <is_checker>
  401da3:	74 14                	je     401db9 <bushandler+0x21>
  401da5:	bf a5 39 40 00       	mov    $0x4039a5,%edi
  401daa:	e8 21 ef ff ff       	callq  400cd0 <puts@plt>
  401daf:	b8 00 00 00 00       	mov    $0x0,%eax
  401db4:	e8 7b fc ff ff       	callq  401a34 <check_fail>
  401db9:	bf 10 3b 40 00       	mov    $0x403b10,%edi
  401dbe:	e8 0d ef ff ff       	callq  400cd0 <puts@plt>
  401dc3:	bf af 39 40 00       	mov    $0x4039af,%edi
  401dc8:	e8 03 ef ff ff       	callq  400cd0 <puts@plt>
  401dcd:	be 00 00 00 00       	mov    $0x0,%esi
  401dd2:	bf 00 00 00 00       	mov    $0x0,%edi
  401dd7:	e8 df fc ff ff       	callq  401abb <notify_server>
  401ddc:	bf 01 00 00 00       	mov    $0x1,%edi
  401de1:	e8 6a f0 ff ff       	callq  400e50 <exit@plt>

0000000000401de6 <seghandler>:
  401de6:	48 83 ec 08          	sub    $0x8,%rsp
  401dea:	83 3d 17 3c 20 00 00 	cmpl   $0x0,0x203c17(%rip)        # 605a08 <is_checker>
  401df1:	74 14                	je     401e07 <seghandler+0x21>
  401df3:	bf c5 39 40 00       	mov    $0x4039c5,%edi
  401df8:	e8 d3 ee ff ff       	callq  400cd0 <puts@plt>
  401dfd:	b8 00 00 00 00       	mov    $0x0,%eax
  401e02:	e8 2d fc ff ff       	callq  401a34 <check_fail>
  401e07:	bf 30 3b 40 00       	mov    $0x403b30,%edi
  401e0c:	e8 bf ee ff ff       	callq  400cd0 <puts@plt>
  401e11:	bf af 39 40 00       	mov    $0x4039af,%edi
  401e16:	e8 b5 ee ff ff       	callq  400cd0 <puts@plt>
  401e1b:	be 00 00 00 00       	mov    $0x0,%esi
  401e20:	bf 00 00 00 00       	mov    $0x0,%edi
  401e25:	e8 91 fc ff ff       	callq  401abb <notify_server>
  401e2a:	bf 01 00 00 00       	mov    $0x1,%edi
  401e2f:	e8 1c f0 ff ff       	callq  400e50 <exit@plt>

0000000000401e34 <illegalhandler>:
  401e34:	48 83 ec 08          	sub    $0x8,%rsp
  401e38:	83 3d c9 3b 20 00 00 	cmpl   $0x0,0x203bc9(%rip)        # 605a08 <is_checker>
  401e3f:	74 14                	je     401e55 <illegalhandler+0x21>
  401e41:	bf d8 39 40 00       	mov    $0x4039d8,%edi
  401e46:	e8 85 ee ff ff       	callq  400cd0 <puts@plt>
  401e4b:	b8 00 00 00 00       	mov    $0x0,%eax
  401e50:	e8 df fb ff ff       	callq  401a34 <check_fail>
  401e55:	bf 58 3b 40 00       	mov    $0x403b58,%edi
  401e5a:	e8 71 ee ff ff       	callq  400cd0 <puts@plt>
  401e5f:	bf af 39 40 00       	mov    $0x4039af,%edi
  401e64:	e8 67 ee ff ff       	callq  400cd0 <puts@plt>
  401e69:	be 00 00 00 00       	mov    $0x0,%esi
  401e6e:	bf 00 00 00 00       	mov    $0x0,%edi
  401e73:	e8 43 fc ff ff       	callq  401abb <notify_server>
  401e78:	bf 01 00 00 00       	mov    $0x1,%edi
  401e7d:	e8 ce ef ff ff       	callq  400e50 <exit@plt>

0000000000401e82 <sigalrmhandler>:
  401e82:	48 83 ec 08          	sub    $0x8,%rsp
  401e86:	83 3d 7b 3b 20 00 00 	cmpl   $0x0,0x203b7b(%rip)        # 605a08 <is_checker>
  401e8d:	74 14                	je     401ea3 <sigalrmhandler+0x21>
  401e8f:	bf ec 39 40 00       	mov    $0x4039ec,%edi
  401e94:	e8 37 ee ff ff       	callq  400cd0 <puts@plt>
  401e99:	b8 00 00 00 00       	mov    $0x0,%eax
  401e9e:	e8 91 fb ff ff       	callq  401a34 <check_fail>
  401ea3:	ba 05 00 00 00       	mov    $0x5,%edx
  401ea8:	be 88 3b 40 00       	mov    $0x403b88,%esi
  401ead:	bf 01 00 00 00       	mov    $0x1,%edi
  401eb2:	b8 00 00 00 00       	mov    $0x0,%eax
  401eb7:	e8 44 ef ff ff       	callq  400e00 <__printf_chk@plt>
  401ebc:	be 00 00 00 00       	mov    $0x0,%esi
  401ec1:	bf 00 00 00 00       	mov    $0x0,%edi
  401ec6:	e8 f0 fb ff ff       	callq  401abb <notify_server>
  401ecb:	bf 01 00 00 00       	mov    $0x1,%edi
  401ed0:	e8 7b ef ff ff       	callq  400e50 <exit@plt>

0000000000401ed5 <launch>:
  401ed5:	55                   	push   %rbp
  401ed6:	48 89 e5             	mov    %rsp,%rbp
  401ed9:	48 83 ec 10          	sub    $0x10,%rsp
  401edd:	48 89 fa             	mov    %rdi,%rdx
  401ee0:	64 48 8b 04 25 28 00 	mov    %fs:0x28,%rax
  401ee7:	00 00 
  401ee9:	48 89 45 f8          	mov    %rax,-0x8(%rbp)
  401eed:	31 c0                	xor    %eax,%eax
  401eef:	48 8d 47 1e          	lea    0x1e(%rdi),%rax
  401ef3:	48 83 e0 f0          	and    $0xfffffffffffffff0,%rax
  401ef7:	48 29 c4             	sub    %rax,%rsp
  401efa:	48 8d 7c 24 0f       	lea    0xf(%rsp),%rdi
  401eff:	48 83 e7 f0          	and    $0xfffffffffffffff0,%rdi
  401f03:	be f4 00 00 00       	mov    $0xf4,%esi
  401f08:	e8 03 ee ff ff       	callq  400d10 <memset@plt>
  401f0d:	48 8b 05 8c 3a 20 00 	mov    0x203a8c(%rip),%rax        # 6059a0 <stdin@@GLIBC_2.2.5>
  401f14:	48 39 05 d5 3a 20 00 	cmp    %rax,0x203ad5(%rip)        # 6059f0 <infile>
  401f1b:	75 14                	jne    401f31 <launch+0x5c>
  401f1d:	be f4 39 40 00       	mov    $0x4039f4,%esi
  401f22:	bf 01 00 00 00       	mov    $0x1,%edi
  401f27:	b8 00 00 00 00       	mov    $0x0,%eax
  401f2c:	e8 cf ee ff ff       	callq  400e00 <__printf_chk@plt>
  401f31:	c7 05 c1 3a 20 00 00 	movl   $0x0,0x203ac1(%rip)        # 6059fc <vlevel>
  401f38:	00 00 00 
  401f3b:	b8 00 00 00 00       	mov    $0x0,%eax
  401f40:	e8 5b fa ff ff       	callq  4019a0 <test>
  401f45:	83 3d bc 3a 20 00 00 	cmpl   $0x0,0x203abc(%rip)        # 605a08 <is_checker>
  401f4c:	74 14                	je     401f62 <launch+0x8d>
  401f4e:	bf 01 3a 40 00       	mov    $0x403a01,%edi
  401f53:	e8 78 ed ff ff       	callq  400cd0 <puts@plt>
  401f58:	b8 00 00 00 00       	mov    $0x0,%eax
  401f5d:	e8 d2 fa ff ff       	callq  401a34 <check_fail>
  401f62:	bf 0c 3a 40 00       	mov    $0x403a0c,%edi
  401f67:	e8 64 ed ff ff       	callq  400cd0 <puts@plt>
  401f6c:	48 8b 45 f8          	mov    -0x8(%rbp),%rax
  401f70:	64 48 33 04 25 28 00 	xor    %fs:0x28,%rax
  401f77:	00 00 
  401f79:	74 05                	je     401f80 <launch+0xab>
  401f7b:	e8 70 ed ff ff       	callq  400cf0 <__stack_chk_fail@plt>
  401f80:	c9                   	leaveq 
  401f81:	c3                   	retq   

0000000000401f82 <stable_launch>:
  401f82:	53                   	push   %rbx
  401f83:	48 89 3d 5e 3a 20 00 	mov    %rdi,0x203a5e(%rip)        # 6059e8 <global_offset>
  401f8a:	41 b9 00 00 00 00    	mov    $0x0,%r9d
  401f90:	41 b8 00 00 00 00    	mov    $0x0,%r8d
  401f96:	b9 32 01 00 00       	mov    $0x132,%ecx
  401f9b:	ba 07 00 00 00       	mov    $0x7,%edx
  401fa0:	be 00 00 10 00       	mov    $0x100000,%esi
  401fa5:	bf 00 60 58 55       	mov    $0x55586000,%edi
  401faa:	e8 51 ed ff ff       	callq  400d00 <mmap@plt>
  401faf:	48 89 c3             	mov    %rax,%rbx
  401fb2:	48 3d 00 60 58 55    	cmp    $0x55586000,%rax
  401fb8:	74 37                	je     401ff1 <stable_launch+0x6f>
  401fba:	be 00 00 10 00       	mov    $0x100000,%esi
  401fbf:	48 89 c7             	mov    %rax,%rdi
  401fc2:	e8 29 ee ff ff       	callq  400df0 <munmap@plt>
  401fc7:	b9 00 60 58 55       	mov    $0x55586000,%ecx
  401fcc:	ba c0 3b 40 00       	mov    $0x403bc0,%edx
  401fd1:	be 01 00 00 00       	mov    $0x1,%esi
  401fd6:	48 8b 3d e3 39 20 00 	mov    0x2039e3(%rip),%rdi        # 6059c0 <stderr@@GLIBC_2.2.5>
  401fdd:	b8 00 00 00 00       	mov    $0x0,%eax
  401fe2:	e8 89 ee ff ff       	callq  400e70 <__fprintf_chk@plt>
  401fe7:	bf 01 00 00 00       	mov    $0x1,%edi
  401fec:	e8 5f ee ff ff       	callq  400e50 <exit@plt>
  401ff1:	48 8d 90 f8 ff 0f 00 	lea    0xffff8(%rax),%rdx
  401ff8:	48 89 15 31 46 20 00 	mov    %rdx,0x204631(%rip)        # 606630 <stack_top>
  401fff:	48 89 e0             	mov    %rsp,%rax
  402002:	48 89 d4             	mov    %rdx,%rsp
  402005:	48 89 c2             	mov    %rax,%rdx
  402008:	48 89 15 d1 39 20 00 	mov    %rdx,0x2039d1(%rip)        # 6059e0 <global_save_stack>
  40200f:	48 8b 3d d2 39 20 00 	mov    0x2039d2(%rip),%rdi        # 6059e8 <global_offset>
  402016:	e8 ba fe ff ff       	callq  401ed5 <launch>
  40201b:	48 8b 05 be 39 20 00 	mov    0x2039be(%rip),%rax        # 6059e0 <global_save_stack>
  402022:	48 89 c4             	mov    %rax,%rsp
  402025:	be 00 00 10 00       	mov    $0x100000,%esi
  40202a:	48 89 df             	mov    %rbx,%rdi
  40202d:	e8 be ed ff ff       	callq  400df0 <munmap@plt>
  402032:	5b                   	pop    %rbx
  402033:	c3                   	retq   

0000000000402034 <rio_readinitb>:
  402034:	89 37                	mov    %esi,(%rdi)
  402036:	c7 47 04 00 00 00 00 	movl   $0x0,0x4(%rdi)
  40203d:	48 8d 47 10          	lea    0x10(%rdi),%rax
  402041:	48 89 47 08          	mov    %rax,0x8(%rdi)
  402045:	c3                   	retq   

0000000000402046 <sigalrm_handler>:
  402046:	48 83 ec 08          	sub    $0x8,%rsp
  40204a:	b9 00 00 00 00       	mov    $0x0,%ecx
  40204f:	ba 00 3c 40 00       	mov    $0x403c00,%edx
  402054:	be 01 00 00 00       	mov    $0x1,%esi
  402059:	48 8b 3d 60 39 20 00 	mov    0x203960(%rip),%rdi        # 6059c0 <stderr@@GLIBC_2.2.5>
  402060:	b8 00 00 00 00       	mov    $0x0,%eax
  402065:	e8 06 ee ff ff       	callq  400e70 <__fprintf_chk@plt>
  40206a:	bf 01 00 00 00       	mov    $0x1,%edi
  40206f:	e8 dc ed ff ff       	callq  400e50 <exit@plt>

0000000000402074 <rio_writen>:
  402074:	41 55                	push   %r13
  402076:	41 54                	push   %r12
  402078:	55                   	push   %rbp
  402079:	53                   	push   %rbx
  40207a:	48 83 ec 08          	sub    $0x8,%rsp
  40207e:	41 89 fc             	mov    %edi,%r12d
  402081:	48 89 f5             	mov    %rsi,%rbp
  402084:	49 89 d5             	mov    %rdx,%r13
  402087:	48 89 d3             	mov    %rdx,%rbx
  40208a:	eb 28                	jmp    4020b4 <rio_writen+0x40>
  40208c:	48 89 da             	mov    %rbx,%rdx
  40208f:	48 89 ee             	mov    %rbp,%rsi
  402092:	44 89 e7             	mov    %r12d,%edi
  402095:	e8 46 ec ff ff       	callq  400ce0 <write@plt>
  40209a:	48 85 c0             	test   %rax,%rax
  40209d:	7f 0f                	jg     4020ae <rio_writen+0x3a>
  40209f:	e8 ec eb ff ff       	callq  400c90 <__errno_location@plt>
  4020a4:	83 38 04             	cmpl   $0x4,(%rax)
  4020a7:	75 15                	jne    4020be <rio_writen+0x4a>
  4020a9:	b8 00 00 00 00       	mov    $0x0,%eax
  4020ae:	48 29 c3             	sub    %rax,%rbx
  4020b1:	48 01 c5             	add    %rax,%rbp
  4020b4:	48 85 db             	test   %rbx,%rbx
  4020b7:	75 d3                	jne    40208c <rio_writen+0x18>
  4020b9:	4c 89 e8             	mov    %r13,%rax
  4020bc:	eb 07                	jmp    4020c5 <rio_writen+0x51>
  4020be:	48 c7 c0 ff ff ff ff 	mov    $0xffffffffffffffff,%rax
  4020c5:	48 83 c4 08          	add    $0x8,%rsp
  4020c9:	5b                   	pop    %rbx
  4020ca:	5d                   	pop    %rbp
  4020cb:	41 5c                	pop    %r12
  4020cd:	41 5d                	pop    %r13
  4020cf:	c3                   	retq   

00000000004020d0 <rio_read>:
  4020d0:	41 55                	push   %r13
  4020d2:	41 54                	push   %r12
  4020d4:	55                   	push   %rbp
  4020d5:	53                   	push   %rbx
  4020d6:	48 83 ec 08          	sub    $0x8,%rsp
  4020da:	48 89 fb             	mov    %rdi,%rbx
  4020dd:	49 89 f5             	mov    %rsi,%r13
  4020e0:	49 89 d4             	mov    %rdx,%r12
  4020e3:	eb 2e                	jmp    402113 <rio_read+0x43>
  4020e5:	48 8d 6b 10          	lea    0x10(%rbx),%rbp
  4020e9:	8b 3b                	mov    (%rbx),%edi
  4020eb:	ba 00 20 00 00       	mov    $0x2000,%edx
  4020f0:	48 89 ee             	mov    %rbp,%rsi
  4020f3:	e8 48 ec ff ff       	callq  400d40 <read@plt>
  4020f8:	89 43 04             	mov    %eax,0x4(%rbx)
  4020fb:	85 c0                	test   %eax,%eax
  4020fd:	79 0c                	jns    40210b <rio_read+0x3b>
  4020ff:	e8 8c eb ff ff       	callq  400c90 <__errno_location@plt>
  402104:	83 38 04             	cmpl   $0x4,(%rax)
  402107:	74 0a                	je     402113 <rio_read+0x43>
  402109:	eb 37                	jmp    402142 <rio_read+0x72>
  40210b:	85 c0                	test   %eax,%eax
  40210d:	74 3c                	je     40214b <rio_read+0x7b>
  40210f:	48 89 6b 08          	mov    %rbp,0x8(%rbx)
  402113:	8b 6b 04             	mov    0x4(%rbx),%ebp
  402116:	85 ed                	test   %ebp,%ebp
  402118:	7e cb                	jle    4020e5 <rio_read+0x15>
  40211a:	89 e8                	mov    %ebp,%eax
  40211c:	49 39 c4             	cmp    %rax,%r12
  40211f:	77 03                	ja     402124 <rio_read+0x54>
  402121:	44 89 e5             	mov    %r12d,%ebp
  402124:	4c 63 e5             	movslq %ebp,%r12
  402127:	48 8b 73 08          	mov    0x8(%rbx),%rsi
  40212b:	4c 89 e2             	mov    %r12,%rdx
  40212e:	4c 89 ef             	mov    %r13,%rdi
  402131:	e8 6a ec ff ff       	callq  400da0 <memcpy@plt>
  402136:	4c 01 63 08          	add    %r12,0x8(%rbx)
  40213a:	29 6b 04             	sub    %ebp,0x4(%rbx)
  40213d:	4c 89 e0             	mov    %r12,%rax
  402140:	eb 0e                	jmp    402150 <rio_read+0x80>
  402142:	48 c7 c0 ff ff ff ff 	mov    $0xffffffffffffffff,%rax
  402149:	eb 05                	jmp    402150 <rio_read+0x80>
  40214b:	b8 00 00 00 00       	mov    $0x0,%eax
  402150:	48 83 c4 08          	add    $0x8,%rsp
  402154:	5b                   	pop    %rbx
  402155:	5d                   	pop    %rbp
  402156:	41 5c                	pop    %r12
  402158:	41 5d                	pop    %r13
  40215a:	c3                   	retq   

000000000040215b <rio_readlineb>:
  40215b:	41 55                	push   %r13
  40215d:	41 54                	push   %r12
  40215f:	55                   	push   %rbp
  402160:	53                   	push   %rbx
  402161:	48 83 ec 18          	sub    $0x18,%rsp
  402165:	49 89 fd             	mov    %rdi,%r13
  402168:	48 89 f5             	mov    %rsi,%rbp
  40216b:	49 89 d4             	mov    %rdx,%r12
  40216e:	64 48 8b 04 25 28 00 	mov    %fs:0x28,%rax
  402175:	00 00 
  402177:	48 89 44 24 08       	mov    %rax,0x8(%rsp)
  40217c:	31 c0                	xor    %eax,%eax
  40217e:	bb 01 00 00 00       	mov    $0x1,%ebx
  402183:	eb 3f                	jmp    4021c4 <rio_readlineb+0x69>
  402185:	ba 01 00 00 00       	mov    $0x1,%edx
  40218a:	48 8d 74 24 07       	lea    0x7(%rsp),%rsi
  40218f:	4c 89 ef             	mov    %r13,%rdi
  402192:	e8 39 ff ff ff       	callq  4020d0 <rio_read>
  402197:	83 f8 01             	cmp    $0x1,%eax
  40219a:	75 15                	jne    4021b1 <rio_readlineb+0x56>
  40219c:	48 8d 45 01          	lea    0x1(%rbp),%rax
  4021a0:	0f b6 54 24 07       	movzbl 0x7(%rsp),%edx
  4021a5:	88 55 00             	mov    %dl,0x0(%rbp)
  4021a8:	80 7c 24 07 0a       	cmpb   $0xa,0x7(%rsp)
  4021ad:	75 0e                	jne    4021bd <rio_readlineb+0x62>
  4021af:	eb 1a                	jmp    4021cb <rio_readlineb+0x70>
  4021b1:	85 c0                	test   %eax,%eax
  4021b3:	75 22                	jne    4021d7 <rio_readlineb+0x7c>
  4021b5:	48 83 fb 01          	cmp    $0x1,%rbx
  4021b9:	75 13                	jne    4021ce <rio_readlineb+0x73>
  4021bb:	eb 23                	jmp    4021e0 <rio_readlineb+0x85>
  4021bd:	48 83 c3 01          	add    $0x1,%rbx
  4021c1:	48 89 c5             	mov    %rax,%rbp
  4021c4:	4c 39 e3             	cmp    %r12,%rbx
  4021c7:	72 bc                	jb     402185 <rio_readlineb+0x2a>
  4021c9:	eb 03                	jmp    4021ce <rio_readlineb+0x73>
  4021cb:	48 89 c5             	mov    %rax,%rbp
  4021ce:	c6 45 00 00          	movb   $0x0,0x0(%rbp)
  4021d2:	48 89 d8             	mov    %rbx,%rax
  4021d5:	eb 0e                	jmp    4021e5 <rio_readlineb+0x8a>
  4021d7:	48 c7 c0 ff ff ff ff 	mov    $0xffffffffffffffff,%rax
  4021de:	eb 05                	jmp    4021e5 <rio_readlineb+0x8a>
  4021e0:	b8 00 00 00 00       	mov    $0x0,%eax
  4021e5:	48 8b 4c 24 08       	mov    0x8(%rsp),%rcx
  4021ea:	64 48 33 0c 25 28 00 	xor    %fs:0x28,%rcx
  4021f1:	00 00 
  4021f3:	74 05                	je     4021fa <rio_readlineb+0x9f>
  4021f5:	e8 f6 ea ff ff       	callq  400cf0 <__stack_chk_fail@plt>
  4021fa:	48 83 c4 18          	add    $0x18,%rsp
  4021fe:	5b                   	pop    %rbx
  4021ff:	5d                   	pop    %rbp
  402200:	41 5c                	pop    %r12
  402202:	41 5d                	pop    %r13
  402204:	c3                   	retq   

0000000000402205 <urlencode>:
  402205:	41 54                	push   %r12
  402207:	55                   	push   %rbp
  402208:	53                   	push   %rbx
  402209:	48 83 ec 10          	sub    $0x10,%rsp
  40220d:	48 89 fb             	mov    %rdi,%rbx
  402210:	48 89 f5             	mov    %rsi,%rbp
  402213:	64 48 8b 04 25 28 00 	mov    %fs:0x28,%rax
  40221a:	00 00 
  40221c:	48 89 44 24 08       	mov    %rax,0x8(%rsp)
  402221:	31 c0                	xor    %eax,%eax
  402223:	48 c7 c1 ff ff ff ff 	mov    $0xffffffffffffffff,%rcx
  40222a:	f2 ae                	repnz scas %es:(%rdi),%al
  40222c:	48 f7 d1             	not    %rcx
  40222f:	8d 41 ff             	lea    -0x1(%rcx),%eax
  402232:	e9 aa 00 00 00       	jmpq   4022e1 <urlencode+0xdc>
  402237:	44 0f b6 03          	movzbl (%rbx),%r8d
  40223b:	41 80 f8 2a          	cmp    $0x2a,%r8b
  40223f:	0f 94 c2             	sete   %dl
  402242:	41 80 f8 2d          	cmp    $0x2d,%r8b
  402246:	0f 94 c0             	sete   %al
  402249:	08 c2                	or     %al,%dl
  40224b:	75 24                	jne    402271 <urlencode+0x6c>
  40224d:	41 80 f8 2e          	cmp    $0x2e,%r8b
  402251:	74 1e                	je     402271 <urlencode+0x6c>
  402253:	41 80 f8 5f          	cmp    $0x5f,%r8b
  402257:	74 18                	je     402271 <urlencode+0x6c>
  402259:	41 8d 40 d0          	lea    -0x30(%r8),%eax
  40225d:	3c 09                	cmp    $0x9,%al
  40225f:	76 10                	jbe    402271 <urlencode+0x6c>
  402261:	41 8d 40 bf          	lea    -0x41(%r8),%eax
  402265:	3c 19                	cmp    $0x19,%al
  402267:	76 08                	jbe    402271 <urlencode+0x6c>
  402269:	41 8d 40 9f          	lea    -0x61(%r8),%eax
  40226d:	3c 19                	cmp    $0x19,%al
  40226f:	77 0a                	ja     40227b <urlencode+0x76>
  402271:	44 88 45 00          	mov    %r8b,0x0(%rbp)
  402275:	48 8d 6d 01          	lea    0x1(%rbp),%rbp
  402279:	eb 5f                	jmp    4022da <urlencode+0xd5>
  40227b:	41 80 f8 20          	cmp    $0x20,%r8b
  40227f:	75 0a                	jne    40228b <urlencode+0x86>
  402281:	c6 45 00 2b          	movb   $0x2b,0x0(%rbp)
  402285:	48 8d 6d 01          	lea    0x1(%rbp),%rbp
  402289:	eb 4f                	jmp    4022da <urlencode+0xd5>
  40228b:	41 8d 40 e0          	lea    -0x20(%r8),%eax
  40228f:	3c 5f                	cmp    $0x5f,%al
  402291:	0f 96 c2             	setbe  %dl
  402294:	41 80 f8 09          	cmp    $0x9,%r8b
  402298:	0f 94 c0             	sete   %al
  40229b:	08 c2                	or     %al,%dl
  40229d:	74 50                	je     4022ef <urlencode+0xea>
  40229f:	45 0f b6 c0          	movzbl %r8b,%r8d
  4022a3:	b9 98 3c 40 00       	mov    $0x403c98,%ecx
  4022a8:	ba 08 00 00 00       	mov    $0x8,%edx
  4022ad:	be 01 00 00 00       	mov    $0x1,%esi
  4022b2:	48 89 e7             	mov    %rsp,%rdi
  4022b5:	b8 00 00 00 00       	mov    $0x0,%eax
  4022ba:	e8 c1 eb ff ff       	callq  400e80 <__sprintf_chk@plt>
  4022bf:	0f b6 04 24          	movzbl (%rsp),%eax
  4022c3:	88 45 00             	mov    %al,0x0(%rbp)
  4022c6:	0f b6 44 24 01       	movzbl 0x1(%rsp),%eax
  4022cb:	88 45 01             	mov    %al,0x1(%rbp)
  4022ce:	0f b6 44 24 02       	movzbl 0x2(%rsp),%eax
  4022d3:	88 45 02             	mov    %al,0x2(%rbp)
  4022d6:	48 8d 6d 03          	lea    0x3(%rbp),%rbp
  4022da:	48 83 c3 01          	add    $0x1,%rbx
  4022de:	44 89 e0             	mov    %r12d,%eax
  4022e1:	44 8d 60 ff          	lea    -0x1(%rax),%r12d
  4022e5:	85 c0                	test   %eax,%eax
  4022e7:	0f 85 4a ff ff ff    	jne    402237 <urlencode+0x32>
  4022ed:	eb 05                	jmp    4022f4 <urlencode+0xef>
  4022ef:	b8 ff ff ff ff       	mov    $0xffffffff,%eax
  4022f4:	48 8b 74 24 08       	mov    0x8(%rsp),%rsi
  4022f9:	64 48 33 34 25 28 00 	xor    %fs:0x28,%rsi
  402300:	00 00 
  402302:	74 05                	je     402309 <urlencode+0x104>
  402304:	e8 e7 e9 ff ff       	callq  400cf0 <__stack_chk_fail@plt>
  402309:	48 83 c4 10          	add    $0x10,%rsp
  40230d:	5b                   	pop    %rbx
  40230e:	5d                   	pop    %rbp
  40230f:	41 5c                	pop    %r12
  402311:	c3                   	retq   

0000000000402312 <submitr>:
  402312:	41 57                	push   %r15
  402314:	41 56                	push   %r14
  402316:	41 55                	push   %r13
  402318:	41 54                	push   %r12
  40231a:	55                   	push   %rbp
  40231b:	53                   	push   %rbx
  40231c:	48 81 ec 58 a0 00 00 	sub    $0xa058,%rsp
  402323:	49 89 fc             	mov    %rdi,%r12
  402326:	89 74 24 04          	mov    %esi,0x4(%rsp)
  40232a:	49 89 d7             	mov    %rdx,%r15
  40232d:	49 89 ce             	mov    %rcx,%r14
  402330:	4c 89 44 24 08       	mov    %r8,0x8(%rsp)
  402335:	4d 89 cd             	mov    %r9,%r13
  402338:	48 8b 9c 24 90 a0 00 	mov    0xa090(%rsp),%rbx
  40233f:	00 
  402340:	64 48 8b 04 25 28 00 	mov    %fs:0x28,%rax
  402347:	00 00 
  402349:	48 89 84 24 48 a0 00 	mov    %rax,0xa048(%rsp)
  402350:	00 
  402351:	31 c0                	xor    %eax,%eax
  402353:	c7 44 24 1c 00 00 00 	movl   $0x0,0x1c(%rsp)
  40235a:	00 
  40235b:	ba 00 00 00 00       	mov    $0x0,%edx
  402360:	be 01 00 00 00       	mov    $0x1,%esi
  402365:	bf 02 00 00 00       	mov    $0x2,%edi
  40236a:	e8 21 eb ff ff       	callq  400e90 <socket@plt>
  40236f:	85 c0                	test   %eax,%eax
  402371:	79 4e                	jns    4023c1 <submitr+0xaf>
  402373:	48 b8 45 72 72 6f 72 	movabs $0x43203a726f727245,%rax
  40237a:	3a 20 43 
  40237d:	48 89 03             	mov    %rax,(%rbx)
  402380:	48 b8 6c 69 65 6e 74 	movabs $0x6e7520746e65696c,%rax
  402387:	20 75 6e 
  40238a:	48 89 43 08          	mov    %rax,0x8(%rbx)
  40238e:	48 b8 61 62 6c 65 20 	movabs $0x206f7420656c6261,%rax
  402395:	74 6f 20 
  402398:	48 89 43 10          	mov    %rax,0x10(%rbx)
  40239c:	48 b8 63 72 65 61 74 	movabs $0x7320657461657263,%rax
  4023a3:	65 20 73 
  4023a6:	48 89 43 18          	mov    %rax,0x18(%rbx)
  4023aa:	c7 43 20 6f 63 6b 65 	movl   $0x656b636f,0x20(%rbx)
  4023b1:	66 c7 43 24 74 00    	movw   $0x74,0x24(%rbx)
  4023b7:	b8 ff ff ff ff       	mov    $0xffffffff,%eax
  4023bc:	e9 97 06 00 00       	jmpq   402a58 <submitr+0x746>
  4023c1:	89 c5                	mov    %eax,%ebp
  4023c3:	4c 89 e7             	mov    %r12,%rdi
  4023c6:	e8 a5 e9 ff ff       	callq  400d70 <gethostbyname@plt>
  4023cb:	48 85 c0             	test   %rax,%rax
  4023ce:	75 67                	jne    402437 <submitr+0x125>
  4023d0:	48 b8 45 72 72 6f 72 	movabs $0x44203a726f727245,%rax
  4023d7:	3a 20 44 
  4023da:	48 89 03             	mov    %rax,(%rbx)
  4023dd:	48 b8 4e 53 20 69 73 	movabs $0x6e7520736920534e,%rax
  4023e4:	20 75 6e 
  4023e7:	48 89 43 08          	mov    %rax,0x8(%rbx)
  4023eb:	48 b8 61 62 6c 65 20 	movabs $0x206f7420656c6261,%rax
  4023f2:	74 6f 20 
  4023f5:	48 89 43 10          	mov    %rax,0x10(%rbx)
  4023f9:	48 b8 72 65 73 6f 6c 	movabs $0x2065766c6f736572,%rax
  402400:	76 65 20 
  402403:	48 89 43 18          	mov    %rax,0x18(%rbx)
  402407:	48 b8 73 65 72 76 65 	movabs $0x6120726576726573,%rax
  40240e:	72 20 61 
  402411:	48 89 43 20          	mov    %rax,0x20(%rbx)
  402415:	c7 43 28 64 64 72 65 	movl   $0x65726464,0x28(%rbx)
  40241c:	66 c7 43 2c 73 73    	movw   $0x7373,0x2c(%rbx)
  402422:	c6 43 2e 00          	movb   $0x0,0x2e(%rbx)
  402426:	89 ef                	mov    %ebp,%edi
  402428:	e8 03 e9 ff ff       	callq  400d30 <close@plt>
  40242d:	b8 ff ff ff ff       	mov    $0xffffffff,%eax
  402432:	e9 21 06 00 00       	jmpq   402a58 <submitr+0x746>
  402437:	48 c7 44 24 20 00 00 	movq   $0x0,0x20(%rsp)
  40243e:	00 00 
  402440:	48 c7 44 24 28 00 00 	movq   $0x0,0x28(%rsp)
  402447:	00 00 
  402449:	66 c7 44 24 20 02 00 	movw   $0x2,0x20(%rsp)
  402450:	48 63 50 14          	movslq 0x14(%rax),%rdx
  402454:	48 8b 40 18          	mov    0x18(%rax),%rax
  402458:	48 8b 30             	mov    (%rax),%rsi
  40245b:	48 8d 7c 24 24       	lea    0x24(%rsp),%rdi
  402460:	b9 0c 00 00 00       	mov    $0xc,%ecx
  402465:	e8 16 e9 ff ff       	callq  400d80 <__memmove_chk@plt>
  40246a:	0f b7 44 24 04       	movzwl 0x4(%rsp),%eax
  40246f:	66 c1 c8 08          	ror    $0x8,%ax
  402473:	66 89 44 24 22       	mov    %ax,0x22(%rsp)
  402478:	ba 10 00 00 00       	mov    $0x10,%edx
  40247d:	48 8d 74 24 20       	lea    0x20(%rsp),%rsi
  402482:	89 ef                	mov    %ebp,%edi
  402484:	e8 d7 e9 ff ff       	callq  400e60 <connect@plt>
  402489:	85 c0                	test   %eax,%eax
  40248b:	79 59                	jns    4024e6 <submitr+0x1d4>
  40248d:	48 b8 45 72 72 6f 72 	movabs $0x55203a726f727245,%rax
  402494:	3a 20 55 
  402497:	48 89 03             	mov    %rax,(%rbx)
  40249a:	48 b8 6e 61 62 6c 65 	movabs $0x6f7420656c62616e,%rax
  4024a1:	20 74 6f 
  4024a4:	48 89 43 08          	mov    %rax,0x8(%rbx)
  4024a8:	48 b8 20 63 6f 6e 6e 	movabs $0x7463656e6e6f6320,%rax
  4024af:	65 63 74 
  4024b2:	48 89 43 10          	mov    %rax,0x10(%rbx)
  4024b6:	48 b8 20 74 6f 20 74 	movabs $0x20656874206f7420,%rax
  4024bd:	68 65 20 
  4024c0:	48 89 43 18          	mov    %rax,0x18(%rbx)
  4024c4:	c7 43 20 73 65 72 76 	movl   $0x76726573,0x20(%rbx)
  4024cb:	66 c7 43 24 65 72    	movw   $0x7265,0x24(%rbx)
  4024d1:	c6 43 26 00          	movb   $0x0,0x26(%rbx)
  4024d5:	89 ef                	mov    %ebp,%edi
  4024d7:	e8 54 e8 ff ff       	callq  400d30 <close@plt>
  4024dc:	b8 ff ff ff ff       	mov    $0xffffffff,%eax
  4024e1:	e9 72 05 00 00       	jmpq   402a58 <submitr+0x746>
  4024e6:	48 c7 c6 ff ff ff ff 	mov    $0xffffffffffffffff,%rsi
  4024ed:	b8 00 00 00 00       	mov    $0x0,%eax
  4024f2:	48 89 f1             	mov    %rsi,%rcx
  4024f5:	4c 89 ef             	mov    %r13,%rdi
  4024f8:	f2 ae                	repnz scas %es:(%rdi),%al
  4024fa:	48 f7 d1             	not    %rcx
  4024fd:	48 89 ca             	mov    %rcx,%rdx
  402500:	48 89 f1             	mov    %rsi,%rcx
  402503:	4c 89 ff             	mov    %r15,%rdi
  402506:	f2 ae                	repnz scas %es:(%rdi),%al
  402508:	48 f7 d1             	not    %rcx
  40250b:	49 89 c8             	mov    %rcx,%r8
  40250e:	48 89 f1             	mov    %rsi,%rcx
  402511:	4c 89 f7             	mov    %r14,%rdi
  402514:	f2 ae                	repnz scas %es:(%rdi),%al
  402516:	48 f7 d1             	not    %rcx
  402519:	4d 8d 44 08 fe       	lea    -0x2(%r8,%rcx,1),%r8
  40251e:	48 89 f1             	mov    %rsi,%rcx
  402521:	48 8b 7c 24 08       	mov    0x8(%rsp),%rdi
  402526:	f2 ae                	repnz scas %es:(%rdi),%al
  402528:	48 89 c8             	mov    %rcx,%rax
  40252b:	48 f7 d0             	not    %rax
  40252e:	49 8d 4c 00 ff       	lea    -0x1(%r8,%rax,1),%rcx
  402533:	48 8d 44 52 fd       	lea    -0x3(%rdx,%rdx,2),%rax
  402538:	48 8d 84 01 80 00 00 	lea    0x80(%rcx,%rax,1),%rax
  40253f:	00 
  402540:	48 3d 00 20 00 00    	cmp    $0x2000,%rax
  402546:	76 72                	jbe    4025ba <submitr+0x2a8>
  402548:	48 b8 45 72 72 6f 72 	movabs $0x52203a726f727245,%rax
  40254f:	3a 20 52 
  402552:	48 89 03             	mov    %rax,(%rbx)
  402555:	48 b8 65 73 75 6c 74 	movabs $0x747320746c757365,%rax
  40255c:	20 73 74 
  40255f:	48 89 43 08          	mov    %rax,0x8(%rbx)
  402563:	48 b8 72 69 6e 67 20 	movabs $0x6f6f7420676e6972,%rax
  40256a:	74 6f 6f 
  40256d:	48 89 43 10          	mov    %rax,0x10(%rbx)
  402571:	48 b8 20 6c 61 72 67 	movabs $0x202e656772616c20,%rax
  402578:	65 2e 20 
  40257b:	48 89 43 18          	mov    %rax,0x18(%rbx)
  40257f:	48 b8 49 6e 63 72 65 	movabs $0x6573616572636e49,%rax
  402586:	61 73 65 
  402589:	48 89 43 20          	mov    %rax,0x20(%rbx)
  40258d:	48 b8 20 53 55 42 4d 	movabs $0x5254494d42555320,%rax
  402594:	49 54 52 
  402597:	48 89 43 28          	mov    %rax,0x28(%rbx)
  40259b:	48 b8 5f 4d 41 58 42 	movabs $0x46554258414d5f,%rax
  4025a2:	55 46 00 
  4025a5:	48 89 43 30          	mov    %rax,0x30(%rbx)
  4025a9:	89 ef                	mov    %ebp,%edi
  4025ab:	e8 80 e7 ff ff       	callq  400d30 <close@plt>
  4025b0:	b8 ff ff ff ff       	mov    $0xffffffff,%eax
  4025b5:	e9 9e 04 00 00       	jmpq   402a58 <submitr+0x746>
  4025ba:	48 8d b4 24 40 40 00 	lea    0x4040(%rsp),%rsi
  4025c1:	00 
  4025c2:	b9 00 04 00 00       	mov    $0x400,%ecx
  4025c7:	b8 00 00 00 00       	mov    $0x0,%eax
  4025cc:	48 89 f7             	mov    %rsi,%rdi
  4025cf:	f3 48 ab             	rep stos %rax,%es:(%rdi)
  4025d2:	4c 89 ef             	mov    %r13,%rdi
  4025d5:	e8 2b fc ff ff       	callq  402205 <urlencode>
  4025da:	85 c0                	test   %eax,%eax
  4025dc:	0f 89 8a 00 00 00    	jns    40266c <submitr+0x35a>
  4025e2:	48 b8 45 72 72 6f 72 	movabs $0x52203a726f727245,%rax
  4025e9:	3a 20 52 
  4025ec:	48 89 03             	mov    %rax,(%rbx)
  4025ef:	48 b8 65 73 75 6c 74 	movabs $0x747320746c757365,%rax
  4025f6:	20 73 74 
  4025f9:	48 89 43 08          	mov    %rax,0x8(%rbx)
  4025fd:	48 b8 72 69 6e 67 20 	movabs $0x6e6f6320676e6972,%rax
  402604:	63 6f 6e 
  402607:	48 89 43 10          	mov    %rax,0x10(%rbx)
  40260b:	48 b8 74 61 69 6e 73 	movabs $0x6e6120736e696174,%rax
  402612:	20 61 6e 
  402615:	48 89 43 18          	mov    %rax,0x18(%rbx)
  402619:	48 b8 20 69 6c 6c 65 	movabs $0x6c6167656c6c6920,%rax
  402620:	67 61 6c 
  402623:	48 89 43 20          	mov    %rax,0x20(%rbx)
  402627:	48 b8 20 6f 72 20 75 	movabs $0x72706e7520726f20,%rax
  40262e:	6e 70 72 
  402631:	48 89 43 28          	mov    %rax,0x28(%rbx)
  402635:	48 b8 69 6e 74 61 62 	movabs $0x20656c6261746e69,%rax
  40263c:	6c 65 20 
  40263f:	48 89 43 30          	mov    %rax,0x30(%rbx)
  402643:	48 b8 63 68 61 72 61 	movabs $0x6574636172616863,%rax
  40264a:	63 74 65 
  40264d:	48 89 43 38          	mov    %rax,0x38(%rbx)
  402651:	66 c7 43 40 72 2e    	movw   $0x2e72,0x40(%rbx)
  402657:	c6 43 42 00          	movb   $0x0,0x42(%rbx)
  40265b:	89 ef                	mov    %ebp,%edi
  40265d:	e8 ce e6 ff ff       	callq  400d30 <close@plt>
  402662:	b8 ff ff ff ff       	mov    $0xffffffff,%eax
  402667:	e9 ec 03 00 00       	jmpq   402a58 <submitr+0x746>
  40266c:	4c 8d ac 24 40 20 00 	lea    0x2040(%rsp),%r13
  402673:	00 
  402674:	41 54                	push   %r12
  402676:	48 8d 84 24 48 40 00 	lea    0x4048(%rsp),%rax
  40267d:	00 
  40267e:	50                   	push   %rax
  40267f:	4d 89 f9             	mov    %r15,%r9
  402682:	4d 89 f0             	mov    %r14,%r8
  402685:	b9 28 3c 40 00       	mov    $0x403c28,%ecx
  40268a:	ba 00 20 00 00       	mov    $0x2000,%edx
  40268f:	be 01 00 00 00       	mov    $0x1,%esi
  402694:	4c 89 ef             	mov    %r13,%rdi
  402697:	b8 00 00 00 00       	mov    $0x0,%eax
  40269c:	e8 df e7 ff ff       	callq  400e80 <__sprintf_chk@plt>
  4026a1:	b8 00 00 00 00       	mov    $0x0,%eax
  4026a6:	48 c7 c1 ff ff ff ff 	mov    $0xffffffffffffffff,%rcx
  4026ad:	4c 89 ef             	mov    %r13,%rdi
  4026b0:	f2 ae                	repnz scas %es:(%rdi),%al
  4026b2:	48 f7 d1             	not    %rcx
  4026b5:	48 8d 51 ff          	lea    -0x1(%rcx),%rdx
  4026b9:	4c 89 ee             	mov    %r13,%rsi
  4026bc:	89 ef                	mov    %ebp,%edi
  4026be:	e8 b1 f9 ff ff       	callq  402074 <rio_writen>
  4026c3:	48 83 c4 10          	add    $0x10,%rsp
  4026c7:	48 85 c0             	test   %rax,%rax
  4026ca:	79 6e                	jns    40273a <submitr+0x428>
  4026cc:	48 b8 45 72 72 6f 72 	movabs $0x43203a726f727245,%rax
  4026d3:	3a 20 43 
  4026d6:	48 89 03             	mov    %rax,(%rbx)
  4026d9:	48 b8 6c 69 65 6e 74 	movabs $0x6e7520746e65696c,%rax
  4026e0:	20 75 6e 
  4026e3:	48 89 43 08          	mov    %rax,0x8(%rbx)
  4026e7:	48 b8 61 62 6c 65 20 	movabs $0x206f7420656c6261,%rax
  4026ee:	74 6f 20 
  4026f1:	48 89 43 10          	mov    %rax,0x10(%rbx)
  4026f5:	48 b8 77 72 69 74 65 	movabs $0x6f74206574697277,%rax
  4026fc:	20 74 6f 
  4026ff:	48 89 43 18          	mov    %rax,0x18(%rbx)
  402703:	48 b8 20 74 68 65 20 	movabs $0x7365722065687420,%rax
  40270a:	72 65 73 
  40270d:	48 89 43 20          	mov    %rax,0x20(%rbx)
  402711:	48 b8 75 6c 74 20 73 	movabs $0x7672657320746c75,%rax
  402718:	65 72 76 
  40271b:	48 89 43 28          	mov    %rax,0x28(%rbx)
  40271f:	66 c7 43 30 65 72    	movw   $0x7265,0x30(%rbx)
  402725:	c6 43 32 00          	movb   $0x0,0x32(%rbx)
  402729:	89 ef                	mov    %ebp,%edi
  40272b:	e8 00 e6 ff ff       	callq  400d30 <close@plt>
  402730:	b8 ff ff ff ff       	mov    $0xffffffff,%eax
  402735:	e9 1e 03 00 00       	jmpq   402a58 <submitr+0x746>
  40273a:	89 ee                	mov    %ebp,%esi
  40273c:	48 8d 7c 24 30       	lea    0x30(%rsp),%rdi
  402741:	e8 ee f8 ff ff       	callq  402034 <rio_readinitb>
  402746:	ba 00 20 00 00       	mov    $0x2000,%edx
  40274b:	48 8d b4 24 40 20 00 	lea    0x2040(%rsp),%rsi
  402752:	00 
  402753:	48 8d 7c 24 30       	lea    0x30(%rsp),%rdi
  402758:	e8 fe f9 ff ff       	callq  40215b <rio_readlineb>
  40275d:	48 85 c0             	test   %rax,%rax
  402760:	7f 7d                	jg     4027df <submitr+0x4cd>
  402762:	48 b8 45 72 72 6f 72 	movabs $0x43203a726f727245,%rax
  402769:	3a 20 43 
  40276c:	48 89 03             	mov    %rax,(%rbx)
  40276f:	48 b8 6c 69 65 6e 74 	movabs $0x6e7520746e65696c,%rax
  402776:	20 75 6e 
  402779:	48 89 43 08          	mov    %rax,0x8(%rbx)
  40277d:	48 b8 61 62 6c 65 20 	movabs $0x206f7420656c6261,%rax
  402784:	74 6f 20 
  402787:	48 89 43 10          	mov    %rax,0x10(%rbx)
  40278b:	48 b8 72 65 61 64 20 	movabs $0x7269662064616572,%rax
  402792:	66 69 72 
  402795:	48 89 43 18          	mov    %rax,0x18(%rbx)
  402799:	48 b8 73 74 20 68 65 	movabs $0x6564616568207473,%rax
  4027a0:	61 64 65 
  4027a3:	48 89 43 20          	mov    %rax,0x20(%rbx)
  4027a7:	48 b8 72 20 66 72 6f 	movabs $0x72206d6f72662072,%rax
  4027ae:	6d 20 72 
  4027b1:	48 89 43 28          	mov    %rax,0x28(%rbx)
  4027b5:	48 b8 65 73 75 6c 74 	movabs $0x657320746c757365,%rax
  4027bc:	20 73 65 
  4027bf:	48 89 43 30          	mov    %rax,0x30(%rbx)
  4027c3:	c7 43 38 72 76 65 72 	movl   $0x72657672,0x38(%rbx)
  4027ca:	c6 43 3c 00          	movb   $0x0,0x3c(%rbx)
  4027ce:	89 ef                	mov    %ebp,%edi
  4027d0:	e8 5b e5 ff ff       	callq  400d30 <close@plt>
  4027d5:	b8 ff ff ff ff       	mov    $0xffffffff,%eax
  4027da:	e9 79 02 00 00       	jmpq   402a58 <submitr+0x746>
  4027df:	4c 8d 84 24 40 80 00 	lea    0x8040(%rsp),%r8
  4027e6:	00 
  4027e7:	48 8d 4c 24 1c       	lea    0x1c(%rsp),%rcx
  4027ec:	48 8d 94 24 40 60 00 	lea    0x6040(%rsp),%rdx
  4027f3:	00 
  4027f4:	be 9f 3c 40 00       	mov    $0x403c9f,%esi
  4027f9:	48 8d bc 24 40 20 00 	lea    0x2040(%rsp),%rdi
  402800:	00 
  402801:	b8 00 00 00 00       	mov    $0x0,%eax
  402806:	e8 d5 e5 ff ff       	callq  400de0 <__isoc99_sscanf@plt>
  40280b:	e9 95 00 00 00       	jmpq   4028a5 <submitr+0x593>
  402810:	ba 00 20 00 00       	mov    $0x2000,%edx
  402815:	48 8d b4 24 40 20 00 	lea    0x2040(%rsp),%rsi
  40281c:	00 
  40281d:	48 8d 7c 24 30       	lea    0x30(%rsp),%rdi
  402822:	e8 34 f9 ff ff       	callq  40215b <rio_readlineb>
  402827:	48 85 c0             	test   %rax,%rax
  40282a:	7f 79                	jg     4028a5 <submitr+0x593>
  40282c:	48 b8 45 72 72 6f 72 	movabs $0x43203a726f727245,%rax
  402833:	3a 20 43 
  402836:	48 89 03             	mov    %rax,(%rbx)
  402839:	48 b8 6c 69 65 6e 74 	movabs $0x6e7520746e65696c,%rax
  402840:	20 75 6e 
  402843:	48 89 43 08          	mov    %rax,0x8(%rbx)
  402847:	48 b8 61 62 6c 65 20 	movabs $0x206f7420656c6261,%rax
  40284e:	74 6f 20 
  402851:	48 89 43 10          	mov    %rax,0x10(%rbx)
  402855:	48 b8 72 65 61 64 20 	movabs $0x6165682064616572,%rax
  40285c:	68 65 61 
  40285f:	48 89 43 18          	mov    %rax,0x18(%rbx)
  402863:	48 b8 64 65 72 73 20 	movabs $0x6f72662073726564,%rax
  40286a:	66 72 6f 
  40286d:	48 89 43 20          	mov    %rax,0x20(%rbx)
  402871:	48 b8 6d 20 74 68 65 	movabs $0x657220656874206d,%rax
  402878:	20 72 65 
  40287b:	48 89 43 28          	mov    %rax,0x28(%rbx)
  40287f:	48 b8 73 75 6c 74 20 	movabs $0x72657320746c7573,%rax
  402886:	73 65 72 
  402889:	48 89 43 30          	mov    %rax,0x30(%rbx)
  40288d:	c7 43 38 76 65 72 00 	movl   $0x726576,0x38(%rbx)
  402894:	89 ef                	mov    %ebp,%edi
  402896:	e8 95 e4 ff ff       	callq  400d30 <close@plt>
  40289b:	b8 ff ff ff ff       	mov    $0xffffffff,%eax
  4028a0:	e9 b3 01 00 00       	jmpq   402a58 <submitr+0x746>
  4028a5:	0f b6 94 24 40 20 00 	movzbl 0x2040(%rsp),%edx
  4028ac:	00 
  4028ad:	b8 0d 00 00 00       	mov    $0xd,%eax
  4028b2:	29 d0                	sub    %edx,%eax
  4028b4:	75 1b                	jne    4028d1 <submitr+0x5bf>
  4028b6:	0f b6 94 24 41 20 00 	movzbl 0x2041(%rsp),%edx
  4028bd:	00 
  4028be:	b8 0a 00 00 00       	mov    $0xa,%eax
  4028c3:	29 d0                	sub    %edx,%eax
  4028c5:	75 0a                	jne    4028d1 <submitr+0x5bf>
  4028c7:	0f b6 84 24 42 20 00 	movzbl 0x2042(%rsp),%eax
  4028ce:	00 
  4028cf:	f7 d8                	neg    %eax
  4028d1:	85 c0                	test   %eax,%eax
  4028d3:	0f 85 37 ff ff ff    	jne    402810 <submitr+0x4fe>
  4028d9:	ba 00 20 00 00       	mov    $0x2000,%edx
  4028de:	48 8d b4 24 40 20 00 	lea    0x2040(%rsp),%rsi
  4028e5:	00 
  4028e6:	48 8d 7c 24 30       	lea    0x30(%rsp),%rdi
  4028eb:	e8 6b f8 ff ff       	callq  40215b <rio_readlineb>
  4028f0:	48 85 c0             	test   %rax,%rax
  4028f3:	0f 8f 83 00 00 00    	jg     40297c <submitr+0x66a>
  4028f9:	48 b8 45 72 72 6f 72 	movabs $0x43203a726f727245,%rax
  402900:	3a 20 43 
  402903:	48 89 03             	mov    %rax,(%rbx)
  402906:	48 b8 6c 69 65 6e 74 	movabs $0x6e7520746e65696c,%rax
  40290d:	20 75 6e 
  402910:	48 89 43 08          	mov    %rax,0x8(%rbx)
  402914:	48 b8 61 62 6c 65 20 	movabs $0x206f7420656c6261,%rax
  40291b:	74 6f 20 
  40291e:	48 89 43 10          	mov    %rax,0x10(%rbx)
  402922:	48 b8 72 65 61 64 20 	movabs $0x6174732064616572,%rax
  402929:	73 74 61 
  40292c:	48 89 43 18          	mov    %rax,0x18(%rbx)
  402930:	48 b8 74 75 73 20 6d 	movabs $0x7373656d20737574,%rax
  402937:	65 73 73 
  40293a:	48 89 43 20          	mov    %rax,0x20(%rbx)
  40293e:	48 b8 61 67 65 20 66 	movabs $0x6d6f726620656761,%rax
  402945:	72 6f 6d 
  402948:	48 89 43 28          	mov    %rax,0x28(%rbx)
  40294c:	48 b8 20 72 65 73 75 	movabs $0x20746c7573657220,%rax
  402953:	6c 74 20 
  402956:	48 89 43 30          	mov    %rax,0x30(%rbx)
  40295a:	c7 43 38 73 65 72 76 	movl   $0x76726573,0x38(%rbx)
  402961:	66 c7 43 3c 65 72    	movw   $0x7265,0x3c(%rbx)
  402967:	c6 43 3e 00          	movb   $0x0,0x3e(%rbx)
  40296b:	89 ef                	mov    %ebp,%edi
  40296d:	e8 be e3 ff ff       	callq  400d30 <close@plt>
  402972:	b8 ff ff ff ff       	mov    $0xffffffff,%eax
  402977:	e9 dc 00 00 00       	jmpq   402a58 <submitr+0x746>
  40297c:	44 8b 44 24 1c       	mov    0x1c(%rsp),%r8d
  402981:	41 81 f8 c8 00 00 00 	cmp    $0xc8,%r8d
  402988:	74 37                	je     4029c1 <submitr+0x6af>
  40298a:	4c 8d 8c 24 40 80 00 	lea    0x8040(%rsp),%r9
  402991:	00 
  402992:	b9 68 3c 40 00       	mov    $0x403c68,%ecx
  402997:	48 c7 c2 ff ff ff ff 	mov    $0xffffffffffffffff,%rdx
  40299e:	be 01 00 00 00       	mov    $0x1,%esi
  4029a3:	48 89 df             	mov    %rbx,%rdi
  4029a6:	b8 00 00 00 00       	mov    $0x0,%eax
  4029ab:	e8 d0 e4 ff ff       	callq  400e80 <__sprintf_chk@plt>
  4029b0:	89 ef                	mov    %ebp,%edi
  4029b2:	e8 79 e3 ff ff       	callq  400d30 <close@plt>
  4029b7:	b8 ff ff ff ff       	mov    $0xffffffff,%eax
  4029bc:	e9 97 00 00 00       	jmpq   402a58 <submitr+0x746>
  4029c1:	48 8d b4 24 40 20 00 	lea    0x2040(%rsp),%rsi
  4029c8:	00 
  4029c9:	48 89 df             	mov    %rbx,%rdi
  4029cc:	e8 ef e2 ff ff       	callq  400cc0 <strcpy@plt>
  4029d1:	89 ef                	mov    %ebp,%edi
  4029d3:	e8 58 e3 ff ff       	callq  400d30 <close@plt>
  4029d8:	0f b6 03             	movzbl (%rbx),%eax
  4029db:	ba 4f 00 00 00       	mov    $0x4f,%edx
  4029e0:	29 c2                	sub    %eax,%edx
  4029e2:	75 22                	jne    402a06 <submitr+0x6f4>
  4029e4:	0f b6 4b 01          	movzbl 0x1(%rbx),%ecx
  4029e8:	b8 4b 00 00 00       	mov    $0x4b,%eax
  4029ed:	29 c8                	sub    %ecx,%eax
  4029ef:	75 17                	jne    402a08 <submitr+0x6f6>
  4029f1:	0f b6 4b 02          	movzbl 0x2(%rbx),%ecx
  4029f5:	b8 0a 00 00 00       	mov    $0xa,%eax
  4029fa:	29 c8                	sub    %ecx,%eax
  4029fc:	75 0a                	jne    402a08 <submitr+0x6f6>
  4029fe:	0f b6 43 03          	movzbl 0x3(%rbx),%eax
  402a02:	f7 d8                	neg    %eax
  402a04:	eb 02                	jmp    402a08 <submitr+0x6f6>
  402a06:	89 d0                	mov    %edx,%eax
  402a08:	85 c0                	test   %eax,%eax
  402a0a:	74 40                	je     402a4c <submitr+0x73a>
  402a0c:	bf b0 3c 40 00       	mov    $0x403cb0,%edi
  402a11:	b9 05 00 00 00       	mov    $0x5,%ecx
  402a16:	48 89 de             	mov    %rbx,%rsi
  402a19:	f3 a6                	repz cmpsb %es:(%rdi),%ds:(%rsi)
  402a1b:	0f 97 c0             	seta   %al
  402a1e:	0f 92 c1             	setb   %cl
  402a21:	29 c8                	sub    %ecx,%eax
  402a23:	0f be c0             	movsbl %al,%eax
  402a26:	85 c0                	test   %eax,%eax
  402a28:	74 2e                	je     402a58 <submitr+0x746>
  402a2a:	85 d2                	test   %edx,%edx
  402a2c:	75 13                	jne    402a41 <submitr+0x72f>
  402a2e:	0f b6 43 01          	movzbl 0x1(%rbx),%eax
  402a32:	ba 4b 00 00 00       	mov    $0x4b,%edx
  402a37:	29 c2                	sub    %eax,%edx
  402a39:	75 06                	jne    402a41 <submitr+0x72f>
  402a3b:	0f b6 53 02          	movzbl 0x2(%rbx),%edx
  402a3f:	f7 da                	neg    %edx
  402a41:	85 d2                	test   %edx,%edx
  402a43:	75 0e                	jne    402a53 <submitr+0x741>
  402a45:	b8 00 00 00 00       	mov    $0x0,%eax
  402a4a:	eb 0c                	jmp    402a58 <submitr+0x746>
  402a4c:	b8 00 00 00 00       	mov    $0x0,%eax
  402a51:	eb 05                	jmp    402a58 <submitr+0x746>
  402a53:	b8 ff ff ff ff       	mov    $0xffffffff,%eax
  402a58:	48 8b 9c 24 48 a0 00 	mov    0xa048(%rsp),%rbx
  402a5f:	00 
  402a60:	64 48 33 1c 25 28 00 	xor    %fs:0x28,%rbx
  402a67:	00 00 
  402a69:	74 05                	je     402a70 <submitr+0x75e>
  402a6b:	e8 80 e2 ff ff       	callq  400cf0 <__stack_chk_fail@plt>
  402a70:	48 81 c4 58 a0 00 00 	add    $0xa058,%rsp
  402a77:	5b                   	pop    %rbx
  402a78:	5d                   	pop    %rbp
  402a79:	41 5c                	pop    %r12
  402a7b:	41 5d                	pop    %r13
  402a7d:	41 5e                	pop    %r14
  402a7f:	41 5f                	pop    %r15
  402a81:	c3                   	retq   

0000000000402a82 <init_timeout>:
  402a82:	85 ff                	test   %edi,%edi
  402a84:	74 23                	je     402aa9 <init_timeout+0x27>
  402a86:	53                   	push   %rbx
  402a87:	89 fb                	mov    %edi,%ebx
  402a89:	85 ff                	test   %edi,%edi
  402a8b:	79 05                	jns    402a92 <init_timeout+0x10>
  402a8d:	bb 00 00 00 00       	mov    $0x0,%ebx
  402a92:	be 46 20 40 00       	mov    $0x402046,%esi
  402a97:	bf 0e 00 00 00       	mov    $0xe,%edi
  402a9c:	e8 bf e2 ff ff       	callq  400d60 <signal@plt>
  402aa1:	89 df                	mov    %ebx,%edi
  402aa3:	e8 78 e2 ff ff       	callq  400d20 <alarm@plt>
  402aa8:	5b                   	pop    %rbx
  402aa9:	f3 c3                	repz retq 

0000000000402aab <init_driver>:
  402aab:	55                   	push   %rbp
  402aac:	53                   	push   %rbx
  402aad:	48 83 ec 28          	sub    $0x28,%rsp
  402ab1:	48 89 fd             	mov    %rdi,%rbp
  402ab4:	64 48 8b 04 25 28 00 	mov    %fs:0x28,%rax
  402abb:	00 00 
  402abd:	48 89 44 24 18       	mov    %rax,0x18(%rsp)
  402ac2:	31 c0                	xor    %eax,%eax
  402ac4:	be 01 00 00 00       	mov    $0x1,%esi
  402ac9:	bf 0d 00 00 00       	mov    $0xd,%edi
  402ace:	e8 8d e2 ff ff       	callq  400d60 <signal@plt>
  402ad3:	be 01 00 00 00       	mov    $0x1,%esi
  402ad8:	bf 1d 00 00 00       	mov    $0x1d,%edi
  402add:	e8 7e e2 ff ff       	callq  400d60 <signal@plt>
  402ae2:	be 01 00 00 00       	mov    $0x1,%esi
  402ae7:	bf 1d 00 00 00       	mov    $0x1d,%edi
  402aec:	e8 6f e2 ff ff       	callq  400d60 <signal@plt>
  402af1:	ba 00 00 00 00       	mov    $0x0,%edx
  402af6:	be 01 00 00 00       	mov    $0x1,%esi
  402afb:	bf 02 00 00 00       	mov    $0x2,%edi
  402b00:	e8 8b e3 ff ff       	callq  400e90 <socket@plt>
  402b05:	85 c0                	test   %eax,%eax
  402b07:	79 4f                	jns    402b58 <init_driver+0xad>
  402b09:	48 b8 45 72 72 6f 72 	movabs $0x43203a726f727245,%rax
  402b10:	3a 20 43 
  402b13:	48 89 45 00          	mov    %rax,0x0(%rbp)
  402b17:	48 b8 6c 69 65 6e 74 	movabs $0x6e7520746e65696c,%rax
  402b1e:	20 75 6e 
  402b21:	48 89 45 08          	mov    %rax,0x8(%rbp)
  402b25:	48 b8 61 62 6c 65 20 	movabs $0x206f7420656c6261,%rax
  402b2c:	74 6f 20 
  402b2f:	48 89 45 10          	mov    %rax,0x10(%rbp)
  402b33:	48 b8 63 72 65 61 74 	movabs $0x7320657461657263,%rax
  402b3a:	65 20 73 
  402b3d:	48 89 45 18          	mov    %rax,0x18(%rbp)
  402b41:	c7 45 20 6f 63 6b 65 	movl   $0x656b636f,0x20(%rbp)
  402b48:	66 c7 45 24 74 00    	movw   $0x74,0x24(%rbp)
  402b4e:	b8 ff ff ff ff       	mov    $0xffffffff,%eax
  402b53:	e9 2a 01 00 00       	jmpq   402c82 <init_driver+0x1d7>
  402b58:	89 c3                	mov    %eax,%ebx
  402b5a:	bf b5 3c 40 00       	mov    $0x403cb5,%edi
  402b5f:	e8 0c e2 ff ff       	callq  400d70 <gethostbyname@plt>
  402b64:	48 85 c0             	test   %rax,%rax
  402b67:	75 68                	jne    402bd1 <init_driver+0x126>
  402b69:	48 b8 45 72 72 6f 72 	movabs $0x44203a726f727245,%rax
  402b70:	3a 20 44 
  402b73:	48 89 45 00          	mov    %rax,0x0(%rbp)
  402b77:	48 b8 4e 53 20 69 73 	movabs $0x6e7520736920534e,%rax
  402b7e:	20 75 6e 
  402b81:	48 89 45 08          	mov    %rax,0x8(%rbp)
  402b85:	48 b8 61 62 6c 65 20 	movabs $0x206f7420656c6261,%rax
  402b8c:	74 6f 20 
  402b8f:	48 89 45 10          	mov    %rax,0x10(%rbp)
  402b93:	48 b8 72 65 73 6f 6c 	movabs $0x2065766c6f736572,%rax
  402b9a:	76 65 20 
  402b9d:	48 89 45 18          	mov    %rax,0x18(%rbp)
  402ba1:	48 b8 73 65 72 76 65 	movabs $0x6120726576726573,%rax
  402ba8:	72 20 61 
  402bab:	48 89 45 20          	mov    %rax,0x20(%rbp)
  402baf:	c7 45 28 64 64 72 65 	movl   $0x65726464,0x28(%rbp)
  402bb6:	66 c7 45 2c 73 73    	movw   $0x7373,0x2c(%rbp)
  402bbc:	c6 45 2e 00          	movb   $0x0,0x2e(%rbp)
  402bc0:	89 df                	mov    %ebx,%edi
  402bc2:	e8 69 e1 ff ff       	callq  400d30 <close@plt>
  402bc7:	b8 ff ff ff ff       	mov    $0xffffffff,%eax
  402bcc:	e9 b1 00 00 00       	jmpq   402c82 <init_driver+0x1d7>
  402bd1:	48 c7 04 24 00 00 00 	movq   $0x0,(%rsp)
  402bd8:	00 
  402bd9:	48 c7 44 24 08 00 00 	movq   $0x0,0x8(%rsp)
  402be0:	00 00 
  402be2:	66 c7 04 24 02 00    	movw   $0x2,(%rsp)
  402be8:	48 63 50 14          	movslq 0x14(%rax),%rdx
  402bec:	48 8b 40 18          	mov    0x18(%rax),%rax
  402bf0:	48 8b 30             	mov    (%rax),%rsi
  402bf3:	48 8d 7c 24 04       	lea    0x4(%rsp),%rdi
  402bf8:	b9 0c 00 00 00       	mov    $0xc,%ecx
  402bfd:	e8 7e e1 ff ff       	callq  400d80 <__memmove_chk@plt>
  402c02:	66 c7 44 24 02 3b 94 	movw   $0x943b,0x2(%rsp)
  402c09:	ba 10 00 00 00       	mov    $0x10,%edx
  402c0e:	48 89 e6             	mov    %rsp,%rsi
  402c11:	89 df                	mov    %ebx,%edi
  402c13:	e8 48 e2 ff ff       	callq  400e60 <connect@plt>
  402c18:	85 c0                	test   %eax,%eax
  402c1a:	79 50                	jns    402c6c <init_driver+0x1c1>
  402c1c:	48 b8 45 72 72 6f 72 	movabs $0x55203a726f727245,%rax
  402c23:	3a 20 55 
  402c26:	48 89 45 00          	mov    %rax,0x0(%rbp)
  402c2a:	48 b8 6e 61 62 6c 65 	movabs $0x6f7420656c62616e,%rax
  402c31:	20 74 6f 
  402c34:	48 89 45 08          	mov    %rax,0x8(%rbp)
  402c38:	48 b8 20 63 6f 6e 6e 	movabs $0x7463656e6e6f6320,%rax
  402c3f:	65 63 74 
  402c42:	48 89 45 10          	mov    %rax,0x10(%rbp)
  402c46:	48 b8 20 74 6f 20 73 	movabs $0x76726573206f7420,%rax
  402c4d:	65 72 76 
  402c50:	48 89 45 18          	mov    %rax,0x18(%rbp)
  402c54:	66 c7 45 20 65 72    	movw   $0x7265,0x20(%rbp)
  402c5a:	c6 45 22 00          	movb   $0x0,0x22(%rbp)
  402c5e:	89 df                	mov    %ebx,%edi
  402c60:	e8 cb e0 ff ff       	callq  400d30 <close@plt>
  402c65:	b8 ff ff ff ff       	mov    $0xffffffff,%eax
  402c6a:	eb 16                	jmp    402c82 <init_driver+0x1d7>
  402c6c:	89 df                	mov    %ebx,%edi
  402c6e:	e8 bd e0 ff ff       	callq  400d30 <close@plt>
  402c73:	66 c7 45 00 4f 4b    	movw   $0x4b4f,0x0(%rbp)
  402c79:	c6 45 02 00          	movb   $0x0,0x2(%rbp)
  402c7d:	b8 00 00 00 00       	mov    $0x0,%eax
  402c82:	48 8b 4c 24 18       	mov    0x18(%rsp),%rcx
  402c87:	64 48 33 0c 25 28 00 	xor    %fs:0x28,%rcx
  402c8e:	00 00 
  402c90:	74 05                	je     402c97 <init_driver+0x1ec>
  402c92:	e8 59 e0 ff ff       	callq  400cf0 <__stack_chk_fail@plt>
  402c97:	48 83 c4 28          	add    $0x28,%rsp
  402c9b:	5b                   	pop    %rbx
  402c9c:	5d                   	pop    %rbp
  402c9d:	c3                   	retq   

0000000000402c9e <driver_post>:
  402c9e:	53                   	push   %rbx
  402c9f:	4c 89 cb             	mov    %r9,%rbx
  402ca2:	45 85 c0             	test   %r8d,%r8d
  402ca5:	74 27                	je     402cce <driver_post+0x30>
  402ca7:	48 89 ca             	mov    %rcx,%rdx
  402caa:	be d0 3c 40 00       	mov    $0x403cd0,%esi
  402caf:	bf 01 00 00 00       	mov    $0x1,%edi
  402cb4:	b8 00 00 00 00       	mov    $0x0,%eax
  402cb9:	e8 42 e1 ff ff       	callq  400e00 <__printf_chk@plt>
  402cbe:	66 c7 03 4f 4b       	movw   $0x4b4f,(%rbx)
  402cc3:	c6 43 02 00          	movb   $0x0,0x2(%rbx)
  402cc7:	b8 00 00 00 00       	mov    $0x0,%eax
  402ccc:	eb 3f                	jmp    402d0d <driver_post+0x6f>
  402cce:	48 85 ff             	test   %rdi,%rdi
  402cd1:	74 2c                	je     402cff <driver_post+0x61>
  402cd3:	80 3f 00             	cmpb   $0x0,(%rdi)
  402cd6:	74 27                	je     402cff <driver_post+0x61>
  402cd8:	48 83 ec 08          	sub    $0x8,%rsp
  402cdc:	41 51                	push   %r9
  402cde:	49 89 c9             	mov    %rcx,%r9
  402ce1:	49 89 d0             	mov    %rdx,%r8
  402ce4:	48 89 f9             	mov    %rdi,%rcx
  402ce7:	48 89 f2             	mov    %rsi,%rdx
  402cea:	be 94 3b 00 00       	mov    $0x3b94,%esi
  402cef:	bf b5 3c 40 00       	mov    $0x403cb5,%edi
  402cf4:	e8 19 f6 ff ff       	callq  402312 <submitr>
  402cf9:	48 83 c4 10          	add    $0x10,%rsp
  402cfd:	eb 0e                	jmp    402d0d <driver_post+0x6f>
  402cff:	66 c7 03 4f 4b       	movw   $0x4b4f,(%rbx)
  402d04:	c6 43 02 00          	movb   $0x0,0x2(%rbx)
  402d08:	b8 00 00 00 00       	mov    $0x0,%eax
  402d0d:	5b                   	pop    %rbx
  402d0e:	c3                   	retq   

0000000000402d0f <check>:
  402d0f:	89 f8                	mov    %edi,%eax
  402d11:	c1 e8 1c             	shr    $0x1c,%eax
  402d14:	85 c0                	test   %eax,%eax
  402d16:	74 1d                	je     402d35 <check+0x26>
  402d18:	b9 00 00 00 00       	mov    $0x0,%ecx
  402d1d:	eb 0b                	jmp    402d2a <check+0x1b>
  402d1f:	89 f8                	mov    %edi,%eax
  402d21:	d3 e8                	shr    %cl,%eax
  402d23:	3c 0a                	cmp    $0xa,%al
  402d25:	74 14                	je     402d3b <check+0x2c>
  402d27:	83 c1 08             	add    $0x8,%ecx
  402d2a:	83 f9 1f             	cmp    $0x1f,%ecx
  402d2d:	7e f0                	jle    402d1f <check+0x10>
  402d2f:	b8 01 00 00 00       	mov    $0x1,%eax
  402d34:	c3                   	retq   
  402d35:	b8 00 00 00 00       	mov    $0x0,%eax
  402d3a:	c3                   	retq   
  402d3b:	b8 00 00 00 00       	mov    $0x0,%eax
  402d40:	c3                   	retq   

0000000000402d41 <gencookie>:
  402d41:	53                   	push   %rbx
  402d42:	83 c7 01             	add    $0x1,%edi
  402d45:	e8 56 df ff ff       	callq  400ca0 <srandom@plt>
  402d4a:	e8 71 e0 ff ff       	callq  400dc0 <random@plt>
  402d4f:	89 c3                	mov    %eax,%ebx
  402d51:	89 c7                	mov    %eax,%edi
  402d53:	e8 b7 ff ff ff       	callq  402d0f <check>
  402d58:	85 c0                	test   %eax,%eax
  402d5a:	74 ee                	je     402d4a <gencookie+0x9>
  402d5c:	89 d8                	mov    %ebx,%eax
  402d5e:	5b                   	pop    %rbx
  402d5f:	c3                   	retq   

0000000000402d60 <__libc_csu_init>:
  402d60:	41 57                	push   %r15
  402d62:	41 56                	push   %r14
  402d64:	41 89 ff             	mov    %edi,%r15d
  402d67:	41 55                	push   %r13
  402d69:	41 54                	push   %r12
  402d6b:	4c 8d 25 9e 20 20 00 	lea    0x20209e(%rip),%r12        # 604e10 <__frame_dummy_init_array_entry>
  402d72:	55                   	push   %rbp
  402d73:	48 8d 2d 9e 20 20 00 	lea    0x20209e(%rip),%rbp        # 604e18 <__init_array_end>
  402d7a:	53                   	push   %rbx
  402d7b:	49 89 f6             	mov    %rsi,%r14
  402d7e:	49 89 d5             	mov    %rdx,%r13
  402d81:	4c 29 e5             	sub    %r12,%rbp
  402d84:	48 83 ec 08          	sub    $0x8,%rsp
  402d88:	48 c1 fd 03          	sar    $0x3,%rbp
  402d8c:	e8 b7 de ff ff       	callq  400c48 <_init>
  402d91:	48 85 ed             	test   %rbp,%rbp
  402d94:	74 20                	je     402db6 <__libc_csu_init+0x56>
  402d96:	31 db                	xor    %ebx,%ebx
  402d98:	0f 1f 84 00 00 00 00 	nopl   0x0(%rax,%rax,1)
  402d9f:	00 
  402da0:	4c 89 ea             	mov    %r13,%rdx
  402da3:	4c 89 f6             	mov    %r14,%rsi
  402da6:	44 89 ff             	mov    %r15d,%edi
  402da9:	41 ff 14 dc          	callq  *(%r12,%rbx,8)
  402dad:	48 83 c3 01          	add    $0x1,%rbx
  402db1:	48 39 eb             	cmp    %rbp,%rbx
  402db4:	75 ea                	jne    402da0 <__libc_csu_init+0x40>
  402db6:	48 83 c4 08          	add    $0x8,%rsp
  402dba:	5b                   	pop    %rbx
  402dbb:	5d                   	pop    %rbp
  402dbc:	41 5c                	pop    %r12
  402dbe:	41 5d                	pop    %r13
  402dc0:	41 5e                	pop    %r14
  402dc2:	41 5f                	pop    %r15
  402dc4:	c3                   	retq   
  402dc5:	90                   	nop
  402dc6:	66 2e 0f 1f 84 00 00 	nopw   %cs:0x0(%rax,%rax,1)
  402dcd:	00 00 00 

0000000000402dd0 <__libc_csu_fini>:
  402dd0:	f3 c3                	repz retq 

Disassembly of section .fini:

0000000000402dd4 <_fini>:
  402dd4:	48 83 ec 08          	sub    $0x8,%rsp
  402dd8:	48 83 c4 08          	add    $0x8,%rsp
  402ddc:	c3                   	retq   
